
/home/aloysius/Projects/JxMake/hardware/Test_Firmware/FW_PICO/RP2350/build/test.elf:     file format elf32-littlearm

Sections:
Idx Name          Size      VMA       LMA       File off  Algn
  0 .text         00004490  10000000  10000000  00001000  2**3
                  CONTENTS, ALLOC, LOAD, READONLY, CODE
  1 .rodata       000003a4  10004490  10004490  00005490  2**2
                  CONTENTS, ALLOC, LOAD, READONLY, DATA
  2 .binary_info  00000020  10004834  10004834  00005834  2**2
                  CONTENTS, ALLOC, LOAD, READONLY, DATA
  3 .ram_vector_table 00000110  20000000  20000000  00008000  2**2
                  ALLOC
  4 .uninitialized_data 00000000  20000110  20000110  0000720c  2**0
                  CONTENTS
  5 .data         000009a4  20000110  10004854  00006110  2**3
                  CONTENTS, ALLOC, LOAD, READONLY, CODE
  6 .tdata        00000000  20000ab4  20000ab4  0000720c  2**0
                  CONTENTS, ALLOC, LOAD, DATA, THREAD_LOCAL
  7 .tbss         00000000  20000ab4  20000ab4  00000000  2**0
                  ALLOC, THREAD_LOCAL
  8 .bss          00000da4  20000ab8  100051f8  00007ab8  2**3
                  ALLOC
  9 .heap         00000800  2000185c  2000185c  0000720c  2**2
                  CONTENTS, READONLY
 10 .scratch_x    00000000  20080000  20080000  00007a0c  2**0
                  CONTENTS
 11 .scratch_y    00000000  20081000  20081000  00007a0c  2**0
                  CONTENTS
 12 .stack1_dummy 00000800  20080000  20080000  00008000  2**2
                  ALLOC
 13 .stack_dummy  00000800  20081000  20081000  00007a20  2**5
                  CONTENTS, READONLY
 14 .flash_end    00000014  100051f8  100051f8  000071f8  2**2
                  CONTENTS, ALLOC, LOAD, READONLY, DATA
 15 .ARM.attributes 00000034  00000000  00000000  00008220  2**0
                  CONTENTS, READONLY
 16 .comment      00000049  00000000  00000000  00008254  2**0
                  CONTENTS, READONLY
 17 .debug_info   00034229  00000000  00000000  0000829d  2**0
                  CONTENTS, READONLY, DEBUGGING, OCTETS
 18 .debug_abbrev 00008ff0  00000000  00000000  0003c4c6  2**0
                  CONTENTS, READONLY, DEBUGGING, OCTETS
 19 .debug_loc    0001fb94  00000000  00000000  000454b6  2**0
                  CONTENTS, READONLY, DEBUGGING, OCTETS
 20 .debug_aranges 00001378  00000000  00000000  00065050  2**3
                  CONTENTS, READONLY, DEBUGGING, OCTETS
 21 .debug_ranges 0000b390  00000000  00000000  000663c8  2**3
                  CONTENTS, READONLY, DEBUGGING, OCTETS
 22 .debug_line   000215f1  00000000  00000000  00071758  2**0
                  CONTENTS, READONLY, DEBUGGING, OCTETS
 23 .debug_str    0000a257  00000000  00000000  00092d49  2**0
                  CONTENTS, READONLY, DEBUGGING, OCTETS
 24 .debug_frame  00003730  00000000  00000000  0009cfa0  2**2
                  CONTENTS, READONLY, DEBUGGING, OCTETS

/home/aloysius/Projects/JxMake/hardware/Test_Firmware/FW_PICO/RP2350/build/test.elf:     file format elf32-littlearm


Disassembly of section .text:

10000000 <__VECTOR_TABLE>:
10000000:	20082000 	.word	0x20082000
10000004:	1000015d 	.word	0x1000015d
10000008:	10000113 	.word	0x10000113
1000000c:	10000115 	.word	0x10000115
10000010:	10000111 	.word	0x10000111
10000014:	10000111 	.word	0x10000111
10000018:	10000111 	.word	0x10000111
1000001c:	10000111 	.word	0x10000111
10000020:	10000111 	.word	0x10000111
10000024:	10000111 	.word	0x10000111
10000028:	10000111 	.word	0x10000111
1000002c:	10000117 	.word	0x10000117
10000030:	10000111 	.word	0x10000111
10000034:	10000111 	.word	0x10000111
10000038:	10000119 	.word	0x10000119
1000003c:	1000011b 	.word	0x1000011b
10000040:	1000011d 	.word	0x1000011d
10000044:	1000011d 	.word	0x1000011d
10000048:	1000011d 	.word	0x1000011d
1000004c:	1000011d 	.word	0x1000011d
10000050:	1000011d 	.word	0x1000011d
10000054:	1000011d 	.word	0x1000011d
10000058:	1000011d 	.word	0x1000011d
1000005c:	1000011d 	.word	0x1000011d
10000060:	1000011d 	.word	0x1000011d
10000064:	1000011d 	.word	0x1000011d
10000068:	1000011d 	.word	0x1000011d
1000006c:	1000011d 	.word	0x1000011d
10000070:	1000011d 	.word	0x1000011d
10000074:	1000011d 	.word	0x1000011d
10000078:	1000011d 	.word	0x1000011d
1000007c:	1000011d 	.word	0x1000011d
10000080:	1000011d 	.word	0x1000011d
10000084:	1000011d 	.word	0x1000011d
10000088:	1000011d 	.word	0x1000011d
1000008c:	1000011d 	.word	0x1000011d
10000090:	1000011d 	.word	0x1000011d
10000094:	1000011d 	.word	0x1000011d
10000098:	1000011d 	.word	0x1000011d
1000009c:	1000011d 	.word	0x1000011d
100000a0:	1000011d 	.word	0x1000011d
100000a4:	1000011d 	.word	0x1000011d
100000a8:	1000011d 	.word	0x1000011d
100000ac:	1000011d 	.word	0x1000011d
100000b0:	1000011d 	.word	0x1000011d
100000b4:	1000011d 	.word	0x1000011d
100000b8:	1000011d 	.word	0x1000011d
100000bc:	1000011d 	.word	0x1000011d
100000c0:	1000011d 	.word	0x1000011d
100000c4:	1000011d 	.word	0x1000011d
100000c8:	1000011d 	.word	0x1000011d
100000cc:	1000011d 	.word	0x1000011d
100000d0:	1000011d 	.word	0x1000011d
100000d4:	1000011d 	.word	0x1000011d
100000d8:	1000011d 	.word	0x1000011d
100000dc:	1000011d 	.word	0x1000011d
100000e0:	1000011d 	.word	0x1000011d
100000e4:	1000011d 	.word	0x1000011d
100000e8:	1000011d 	.word	0x1000011d
100000ec:	1000011d 	.word	0x1000011d
100000f0:	1000011d 	.word	0x1000011d
100000f4:	1000011d 	.word	0x1000011d
100000f8:	1000011d 	.word	0x1000011d
100000fc:	1000011d 	.word	0x1000011d
10000100:	1000011d 	.word	0x1000011d
10000104:	1000011d 	.word	0x1000011d
10000108:	1000011d 	.word	0x1000011d
1000010c:	1000011d 	.word	0x1000011d

10000110 <isr_invalid>:
10000110:	be00      	bkpt	0x0000

10000112 <isr_nmi>:
10000112:	be00      	bkpt	0x0000

10000114 <isr_hardfault>:
10000114:	be00      	bkpt	0x0000

10000116 <isr_svcall>:
10000116:	be00      	bkpt	0x0000

10000118 <isr_pendsv>:
10000118:	be00      	bkpt	0x0000

1000011a <isr_systick>:
1000011a:	be00      	bkpt	0x0000

1000011c <__unhandled_user_irq>:
1000011c:	f3ef 8005 	mrs	r0, IPSR
10000120:	3810      	subs	r0, #16

10000122 <unhandled_user_irq_num_in_r0>:
10000122:	be00      	bkpt	0x0000

10000124 <binary_info_header>:
10000124:	7188ebf2 	.word	0x7188ebf2
10000128:	10004834 	.word	0x10004834
1000012c:	10004854 	.word	0x10004854
10000130:	100001a8 	.word	0x100001a8
10000134:	e71aa390 	.word	0xe71aa390

10000138 <__binary_info_header_end>:
10000138:	ffffded3 	.word	0xffffded3
1000013c:	10210142 	.word	0x10210142
10000140:	000001ff 	.word	0x000001ff
10000144:	000050c0 	.word	0x000050c0
10000148:	ab123579 	.word	0xab123579

1000014c <_entry_point>:
1000014c:	f04f 0000 	mov.w	r0, #0

10000150 <_enter_vtable_in_r0>:
10000150:	4920      	ldr	r1, [pc, #128]	; (100001d4 <data_cpy_table+0x2c>)
10000152:	6008      	str	r0, [r1, #0]
10000154:	c806      	ldmia	r0!, {r1, r2}
10000156:	f381 8808 	msr	MSP, r1
1000015a:	4710      	bx	r2

1000015c <_reset_handler>:
1000015c:	f04f 4050 	mov.w	r0, #3489660928	; 0xd0000000
10000160:	6800      	ldr	r0, [r0, #0]
10000162:	b110      	cbz	r0, 1000016a <hold_non_core0_in_bootrom+0x6>

10000164 <hold_non_core0_in_bootrom>:
10000164:	f04f 0000 	mov.w	r0, #0
10000168:	e7f2      	b.n	10000150 <_enter_vtable_in_r0>
1000016a:	a40f      	add	r4, pc, #60	; (adr r4, 100001a8 <data_cpy_table>)
1000016c:	cc0e      	ldmia	r4!, {r1, r2, r3}
1000016e:	2900      	cmp	r1, #0
10000170:	d002      	beq.n	10000178 <hold_non_core0_in_bootrom+0x14>
10000172:	f000 f815 	bl	100001a0 <data_cpy>
10000176:	e7f9      	b.n	1000016c <hold_non_core0_in_bootrom+0x8>
10000178:	4917      	ldr	r1, [pc, #92]	; (100001d8 <data_cpy_table+0x30>)
1000017a:	4a18      	ldr	r2, [pc, #96]	; (100001dc <data_cpy_table+0x34>)
1000017c:	2000      	movs	r0, #0
1000017e:	e000      	b.n	10000182 <bss_fill_test>

10000180 <bss_fill_loop>:
10000180:	c101      	stmia	r1!, {r0}

10000182 <bss_fill_test>:
10000182:	4291      	cmp	r1, r2
10000184:	d1fc      	bne.n	10000180 <bss_fill_loop>

10000186 <platform_entry>:
10000186:	2000      	movs	r0, #0
10000188:	f380 880a 	msr	MSPLIM, r0
1000018c:	4914      	ldr	r1, [pc, #80]	; (100001e0 <data_cpy_table+0x38>)
1000018e:	4788      	blx	r1
10000190:	4914      	ldr	r1, [pc, #80]	; (100001e4 <data_cpy_table+0x3c>)
10000192:	4788      	blx	r1
10000194:	4914      	ldr	r1, [pc, #80]	; (100001e8 <data_cpy_table+0x40>)
10000196:	4788      	blx	r1
10000198:	be00      	bkpt	0x0000
1000019a:	e7fd      	b.n	10000198 <platform_entry+0x12>

1000019c <data_cpy_loop>:
1000019c:	c901      	ldmia	r1!, {r0}
1000019e:	c201      	stmia	r2!, {r0}

100001a0 <data_cpy>:
100001a0:	429a      	cmp	r2, r3
100001a2:	d3fb      	bcc.n	1000019c <data_cpy_loop>
100001a4:	4770      	bx	lr
100001a6:	bf00      	nop

100001a8 <data_cpy_table>:
100001a8:	10004854 	.word	0x10004854
100001ac:	20000110 	.word	0x20000110
100001b0:	20000ab4 	.word	0x20000ab4
100001b4:	100051f8 	.word	0x100051f8
100001b8:	20080000 	.word	0x20080000
100001bc:	20080000 	.word	0x20080000
100001c0:	100051f8 	.word	0x100051f8
100001c4:	20081000 	.word	0x20081000
100001c8:	20081000 	.word	0x20081000
100001cc:	00000000 	.word	0x00000000
100001d0:	4770      	bx	lr
100001d2:	0000      	.short	0x0000
100001d4:	e000ed08 	.word	0xe000ed08
100001d8:	20000ab4 	.word	0x20000ab4
100001dc:	2000185c 	.word	0x2000185c
100001e0:	10001b51 	.word	0x10001b51
100001e4:	100002fd 	.word	0x100002fd
100001e8:	10001b49 	.word	0x10001b49

100001ec <_init>:
100001ec:	b5f8      	push	{r3, r4, r5, r6, r7, lr}
100001ee:	bf00      	nop

100001f0 <__do_global_dtors_aux>:
100001f0:	b510      	push	{r4, lr}
100001f2:	4c05      	ldr	r4, [pc, #20]	; (10000208 <__do_global_dtors_aux+0x18>)
100001f4:	7823      	ldrb	r3, [r4, #0]
100001f6:	b933      	cbnz	r3, 10000206 <__do_global_dtors_aux+0x16>
100001f8:	4b04      	ldr	r3, [pc, #16]	; (1000020c <__do_global_dtors_aux+0x1c>)
100001fa:	b113      	cbz	r3, 10000202 <__do_global_dtors_aux+0x12>
100001fc:	4804      	ldr	r0, [pc, #16]	; (10000210 <__do_global_dtors_aux+0x20>)
100001fe:	e000      	b.n	10000202 <__do_global_dtors_aux+0x12>
10000200:	bf00      	nop
10000202:	2301      	movs	r3, #1
10000204:	7023      	strb	r3, [r4, #0]
10000206:	bd10      	pop	{r4, pc}
10000208:	20000c40 	.word	0x20000c40
1000020c:	00000000 	.word	0x00000000
10000210:	10004490 	.word	0x10004490

10000214 <frame_dummy>:
10000214:	b508      	push	{r3, lr}
10000216:	4b03      	ldr	r3, [pc, #12]	; (10000224 <frame_dummy+0x10>)
10000218:	b11b      	cbz	r3, 10000222 <frame_dummy+0xe>
1000021a:	4903      	ldr	r1, [pc, #12]	; (10000228 <frame_dummy+0x14>)
1000021c:	4803      	ldr	r0, [pc, #12]	; (1000022c <frame_dummy+0x18>)
1000021e:	e000      	b.n	10000222 <frame_dummy+0xe>
10000220:	bf00      	nop
10000222:	bd08      	pop	{r3, pc}
10000224:	00000000 	.word	0x00000000
10000228:	20000c44 	.word	0x20000c44
1000022c:	10004490 	.word	0x10004490

10000230 <delayAndCheckSwitch>:
10000230:	b570      	push	{r4, r5, r6, lr}
10000232:	2400      	movs	r4, #0
10000234:	f04f 4650 	mov.w	r6, #3489660928	; 0xd0000000
10000238:	4605      	mov	r5, r0
1000023a:	200a      	movs	r0, #10
1000023c:	f001 f8a2 	bl	10001384 <sleep_ms>
10000240:	6873      	ldr	r3, [r6, #4]
10000242:	3401      	adds	r4, #1
10000244:	041a      	lsls	r2, r3, #16
10000246:	d507      	bpl.n	10000258 <delayAndCheckSwitch+0x28>
10000248:	42a5      	cmp	r5, r4
1000024a:	d1f6      	bne.n	1000023a <delayAndCheckSwitch+0xa>
1000024c:	f04f 4250 	mov.w	r2, #3489660928	; 0xd0000000
10000250:	6853      	ldr	r3, [r2, #4]
10000252:	041b      	lsls	r3, r3, #16
10000254:	d5fc      	bpl.n	10000250 <delayAndCheckSwitch+0x20>
10000256:	bd70      	pop	{r4, r5, r6, pc}
10000258:	2064      	movs	r0, #100	; 0x64
1000025a:	f001 f893 	bl	10001384 <sleep_ms>
1000025e:	4a03      	ldr	r2, [pc, #12]	; (1000026c <delayAndCheckSwitch+0x3c>)
10000260:	7813      	ldrb	r3, [r2, #0]
10000262:	f083 0301 	eor.w	r3, r3, #1
10000266:	7013      	strb	r3, [r2, #0]
10000268:	e7f0      	b.n	1000024c <delayAndCheckSwitch+0x1c>
1000026a:	bf00      	nop
1000026c:	20000a08 	.word	0x20000a08

10000270 <core1_program>:
10000270:	e92d 41f0 	stmdb	sp!, {r4, r5, r6, r7, r8, lr}
10000274:	f04f 0801 	mov.w	r8, #1
10000278:	2700      	movs	r7, #0
1000027a:	4d1f      	ldr	r5, [pc, #124]	; (100002f8 <core1_program+0x88>)
1000027c:	782b      	ldrb	r3, [r5, #0]
1000027e:	ea83 0308 	eor.w	r3, r3, r8
10000282:	702b      	strb	r3, [r5, #0]
10000284:	2403      	movs	r4, #3
10000286:	2619      	movs	r6, #25
10000288:	ec48 6040 	gpioc_bit_out_put r6, r8
1000028c:	2b00      	cmp	r3, #0
1000028e:	bf14      	ite	ne
10000290:	2005      	movne	r0, #5
10000292:	200a      	moveq	r0, #10
10000294:	f7ff ffcc 	bl	10000230 <delayAndCheckSwitch>
10000298:	ec47 6040 	gpioc_bit_out_put r6, r7
1000029c:	782b      	ldrb	r3, [r5, #0]
1000029e:	2b00      	cmp	r3, #0
100002a0:	bf14      	ite	ne
100002a2:	2005      	movne	r0, #5
100002a4:	200a      	moveq	r0, #10
100002a6:	f7ff ffc3 	bl	10000230 <delayAndCheckSwitch>
100002aa:	1e63      	subs	r3, r4, #1
100002ac:	f013 04ff 	ands.w	r4, r3, #255	; 0xff
100002b0:	d001      	beq.n	100002b6 <core1_program+0x46>
100002b2:	782b      	ldrb	r3, [r5, #0]
100002b4:	e7e8      	b.n	10000288 <core1_program+0x18>
100002b6:	2403      	movs	r4, #3
100002b8:	260e      	movs	r6, #14
100002ba:	ec48 6040 	gpioc_bit_out_put r6, r8
100002be:	782b      	ldrb	r3, [r5, #0]
100002c0:	2b00      	cmp	r3, #0
100002c2:	bf14      	ite	ne
100002c4:	2005      	movne	r0, #5
100002c6:	200a      	moveq	r0, #10
100002c8:	f7ff ffb2 	bl	10000230 <delayAndCheckSwitch>
100002cc:	ec47 6040 	gpioc_bit_out_put r6, r7
100002d0:	782b      	ldrb	r3, [r5, #0]
100002d2:	2b00      	cmp	r3, #0
100002d4:	bf14      	ite	ne
100002d6:	2005      	movne	r0, #5
100002d8:	200a      	moveq	r0, #10
100002da:	f7ff ffa9 	bl	10000230 <delayAndCheckSwitch>
100002de:	1e63      	subs	r3, r4, #1
100002e0:	f013 04ff 	ands.w	r4, r3, #255	; 0xff
100002e4:	d1e9      	bne.n	100002ba <core1_program+0x4a>
100002e6:	782b      	ldrb	r3, [r5, #0]
100002e8:	2b00      	cmp	r3, #0
100002ea:	bf14      	ite	ne
100002ec:	200f      	movne	r0, #15
100002ee:	201e      	moveq	r0, #30
100002f0:	f7ff ff9e 	bl	10000230 <delayAndCheckSwitch>
100002f4:	782b      	ldrb	r3, [r5, #0]
100002f6:	e7c5      	b.n	10000284 <core1_program+0x14>
100002f8:	20000a08 	.word	0x20000a08

100002fc <main>:
100002fc:	e92d 43f0 	stmdb	sp!, {r4, r5, r6, r7, r8, r9, lr}
10000300:	b08b      	sub	sp, #44	; 0x2c
10000302:	f001 fd47 	bl	10001d94 <stdio_init_all>
10000306:	2019      	movs	r0, #25
10000308:	f000 fad6 	bl	100008b8 <gpio_init>
1000030c:	f04f 0801 	mov.w	r8, #1
10000310:	2319      	movs	r3, #25
10000312:	ec48 3044 	gpioc_bit_oe_put r3, r8
10000316:	200e      	movs	r0, #14
10000318:	f000 face 	bl	100008b8 <gpio_init>
1000031c:	230e      	movs	r3, #14
1000031e:	ec48 3044 	gpioc_bit_oe_put r3, r8
10000322:	200f      	movs	r0, #15
10000324:	f000 fac8 	bl	100008b8 <gpio_init>
10000328:	2600      	movs	r6, #0
1000032a:	200f      	movs	r0, #15
1000032c:	ec46 0044 	gpioc_bit_oe_put r0, r6
10000330:	4c2e      	ldr	r4, [pc, #184]	; (100003ec <main+0xf0>)
10000332:	4632      	mov	r2, r6
10000334:	4641      	mov	r1, r8
10000336:	f000 faa7 	bl	10000888 <gpio_set_pulls>
1000033a:	492d      	ldr	r1, [pc, #180]	; (100003f0 <main+0xf4>)
1000033c:	4620      	mov	r0, r4
1000033e:	f000 f8f3 	bl	10000528 <pio_add_program>
10000342:	2106      	movs	r1, #6
10000344:	4607      	mov	r7, r0
10000346:	2010      	movs	r0, #16
10000348:	f000 fa80 	bl	1000084c <gpio_set_function>
1000034c:	4643      	mov	r3, r8
1000034e:	2210      	movs	r2, #16
10000350:	4631      	mov	r1, r6
10000352:	f8cd 8000 	str.w	r8, [sp]
10000356:	4620      	mov	r0, r4
10000358:	f000 f900 	bl	1000055c <pio_sm_set_consecutive_pindirs>
1000035c:	f44f 3380 	mov.w	r3, #65536	; 0x10000
10000360:	f44f 32f8 	mov.w	r2, #126976	; 0x1f000
10000364:	e9cd 3206 	strd	r3, r2, [sp, #24]
10000368:	f44f 2340 	mov.w	r3, #786432	; 0xc0000
1000036c:	f107 0807 	add.w	r8, r7, #7
10000370:	f10d 0c18 	add.w	ip, sp, #24
10000374:	9609      	str	r6, [sp, #36]	; 0x24
10000376:	f10d 0e08 	add.w	lr, sp, #8
1000037a:	9308      	str	r3, [sp, #32]
1000037c:	1cba      	adds	r2, r7, #2
1000037e:	ea4f 3808 	mov.w	r8, r8, lsl #12
10000382:	ea48 18c2 	orr.w	r8, r8, r2, lsl #7
10000386:	e89c 000f 	ldmia.w	ip, {r0, r1, r2, r3}
1000038a:	e88e 000f 	stmia.w	lr, {r0, r1, r2, r3}
1000038e:	f8df 906c 	ldr.w	r9, [pc, #108]	; 100003fc <main+0x100>
10000392:	f8cd 800c 	str.w	r8, [sp, #12]
10000396:	e89e 000f 	ldmia.w	lr, {r0, r1, r2, r3}
1000039a:	e88c 000f 	stmia.w	ip, {r0, r1, r2, r3}
1000039e:	4663      	mov	r3, ip
100003a0:	463a      	mov	r2, r7
100003a2:	4631      	mov	r1, r6
100003a4:	4620      	mov	r0, r4
100003a6:	f8cd 9024 	str.w	r9, [sp, #36]	; 0x24
100003aa:	f000 f91f 	bl	100005ec <pio_sm_init>
100003ae:	6823      	ldr	r3, [r4, #0]
100003b0:	2005      	movs	r0, #5
100003b2:	f043 0301 	orr.w	r3, r3, #1
100003b6:	6023      	str	r3, [r4, #0]
100003b8:	f001 f98e 	bl	100016d8 <clock_get_hz>
100003bc:	4603      	mov	r3, r0
100003be:	085b      	lsrs	r3, r3, #1
100003c0:	3b03      	subs	r3, #3
100003c2:	480c      	ldr	r0, [pc, #48]	; (100003f4 <main+0xf8>)
100003c4:	6123      	str	r3, [r4, #16]
100003c6:	4d0c      	ldr	r5, [pc, #48]	; (100003f8 <main+0xfc>)
100003c8:	f001 f8f6 	bl	100015b8 <multicore_launch_core1>
100003cc:	f44f 707a 	mov.w	r0, #1000	; 0x3e8
100003d0:	f001 fce2 	bl	10001d98 <stdio_getchar_timeout_us>
100003d4:	2870      	cmp	r0, #112	; 0x70
100003d6:	d005      	beq.n	100003e4 <main+0xe8>
100003d8:	2862      	cmp	r0, #98	; 0x62
100003da:	d1f7      	bne.n	100003cc <main+0xd0>
100003dc:	2100      	movs	r1, #0
100003de:	4608      	mov	r0, r1
100003e0:	f001 fa48 	bl	10001874 <rom_reset_usb_boot>
100003e4:	4628      	mov	r0, r5
100003e6:	f001 fcff 	bl	10001de8 <__wrap_puts>
100003ea:	e7ef      	b.n	100003cc <main+0xd0>
100003ec:	50200000 	.word	0x50200000
100003f0:	100044b8 	.word	0x100044b8
100003f4:	10000271 	.word	0x10000271
100003f8:	10004490 	.word	0x10004490
100003fc:	04000200 	.word	0x04000200

10000400 <add_program_at_offset_check>:
10000400:	f8d0 3168 	ldr.w	r3, [r0, #360]	; 0x168
10000404:	f891 c007 	ldrb.w	ip, [r1, #7]
10000408:	b9f3      	cbnz	r3, 10000448 <add_program_at_offset_check+0x48>
1000040a:	f01c 0f04 	tst.w	ip, #4
1000040e:	d11e      	bne.n	1000044e <add_program_at_offset_check+0x4e>
10000410:	f991 3005 	ldrsb.w	r3, [r1, #5]
10000414:	2b00      	cmp	r3, #0
10000416:	db01      	blt.n	1000041c <add_program_at_offset_check+0x1c>
10000418:	4293      	cmp	r3, r2
1000041a:	d118      	bne.n	1000044e <add_program_at_offset_check+0x4e>
1000041c:	2301      	movs	r3, #1
1000041e:	f891 c004 	ldrb.w	ip, [r1, #4]
10000422:	f100 402f 	add.w	r0, r0, #2936012800	; 0xaf000000
10000426:	490b      	ldr	r1, [pc, #44]	; (10000454 <add_program_at_offset_check+0x54>)
10000428:	f500 0060 	add.w	r0, r0, #14680064	; 0xe00000
1000042c:	0d00      	lsrs	r0, r0, #20
1000042e:	fa03 f30c 	lsl.w	r3, r3, ip
10000432:	f851 1020 	ldr.w	r1, [r1, r0, lsl #2]
10000436:	3b01      	subs	r3, #1
10000438:	fa03 f202 	lsl.w	r2, r3, r2
1000043c:	420a      	tst	r2, r1
1000043e:	bf14      	ite	ne
10000440:	f06f 0008 	mvnne.w	r0, #8
10000444:	2000      	moveq	r0, #0
10000446:	4770      	bx	lr
10000448:	f01c 0f01 	tst.w	ip, #1
1000044c:	d0e0      	beq.n	10000410 <add_program_at_offset_check+0x10>
1000044e:	f06f 000a 	mvn.w	r0, #10
10000452:	4770      	bx	lr
10000454:	200010c4 	.word	0x200010c4

10000458 <add_program_at_offset>:
10000458:	b5f8      	push	{r3, r4, r5, r6, r7, lr}
1000045a:	4604      	mov	r4, r0
1000045c:	460f      	mov	r7, r1
1000045e:	4615      	mov	r5, r2
10000460:	f7ff ffce 	bl	10000400 <add_program_at_offset_check>
10000464:	bb20      	cbnz	r0, 100004b0 <add_program_at_offset+0x58>
10000466:	793e      	ldrb	r6, [r7, #4]
10000468:	6839      	ldr	r1, [r7, #0]
1000046a:	b186      	cbz	r6, 1000048e <add_program_at_offset+0x36>
1000046c:	46ac      	mov	ip, r5
1000046e:	4a11      	ldr	r2, [pc, #68]	; (100004b4 <add_program_at_offset+0x5c>)
10000470:	eb01 0e46 	add.w	lr, r1, r6, lsl #1
10000474:	f831 3b02 	ldrh.w	r3, [r1], #2
10000478:	f10c 0012 	add.w	r0, ip, #18
1000047c:	4213      	tst	r3, r2
1000047e:	bf08      	it	eq
10000480:	195b      	addeq	r3, r3, r5
10000482:	4571      	cmp	r1, lr
10000484:	f10c 0c01 	add.w	ip, ip, #1
10000488:	f844 3020 	str.w	r3, [r4, r0, lsl #2]
1000048c:	d1f2      	bne.n	10000474 <add_program_at_offset+0x1c>
1000048e:	2201      	movs	r2, #1
10000490:	f104 442f 	add.w	r4, r4, #2936012800	; 0xaf000000
10000494:	4b08      	ldr	r3, [pc, #32]	; (100004b8 <add_program_at_offset+0x60>)
10000496:	f504 0460 	add.w	r4, r4, #14680064	; 0xe00000
1000049a:	40b2      	lsls	r2, r6
1000049c:	0d24      	lsrs	r4, r4, #20
1000049e:	3a01      	subs	r2, #1
100004a0:	4628      	mov	r0, r5
100004a2:	fa02 f505 	lsl.w	r5, r2, r5
100004a6:	f853 2024 	ldr.w	r2, [r3, r4, lsl #2]
100004aa:	4315      	orrs	r5, r2
100004ac:	f843 5024 	str.w	r5, [r3, r4, lsl #2]
100004b0:	bdf8      	pop	{r3, r4, r5, r6, r7, pc}
100004b2:	bf00      	nop
100004b4:	ffffe000 	.word	0xffffe000
100004b8:	200010c4 	.word	0x200010c4

100004bc <find_offset_for_program.isra.0>:
100004bc:	2301      	movs	r3, #1
100004be:	f100 402f 	add.w	r0, r0, #2936012800	; 0xaf000000
100004c2:	b410      	push	{r4}
100004c4:	f500 0060 	add.w	r0, r0, #14680064	; 0xe00000
100004c8:	4c16      	ldr	r4, [pc, #88]	; (10000524 <find_offset_for_program.isra.0+0x68>)
100004ca:	ea4f 5c10 	mov.w	ip, r0, lsr #20
100004ce:	408b      	lsls	r3, r1
100004d0:	2a00      	cmp	r2, #0
100004d2:	f854 402c 	ldr.w	r4, [r4, ip, lsl #2]
100004d6:	f103 33ff 	add.w	r3, r3, #4294967295	; 0xffffffff
100004da:	db0c      	blt.n	100004f6 <find_offset_for_program.isra.0+0x3a>
100004dc:	f1c1 0020 	rsb	r0, r1, #32
100004e0:	4282      	cmp	r2, r0
100004e2:	dc1c      	bgt.n	1000051e <find_offset_for_program.isra.0+0x62>
100004e4:	4093      	lsls	r3, r2
100004e6:	4223      	tst	r3, r4
100004e8:	bf0c      	ite	eq
100004ea:	4610      	moveq	r0, r2
100004ec:	f04f 30ff 	movne.w	r0, #4294967295	; 0xffffffff
100004f0:	f85d 4b04 	ldr.w	r4, [sp], #4
100004f4:	4770      	bx	lr
100004f6:	f1d1 0020 	rsbs	r0, r1, #32
100004fa:	d40b      	bmi.n	10000514 <find_offset_for_program.isra.0+0x58>
100004fc:	fa03 f200 	lsl.w	r2, r3, r0
10000500:	4222      	tst	r2, r4
10000502:	d102      	bne.n	1000050a <find_offset_for_program.isra.0+0x4e>
10000504:	e7f4      	b.n	100004f0 <find_offset_for_program.isra.0+0x34>
10000506:	4222      	tst	r2, r4
10000508:	d0f2      	beq.n	100004f0 <find_offset_for_program.isra.0+0x34>
1000050a:	3801      	subs	r0, #1
1000050c:	1c41      	adds	r1, r0, #1
1000050e:	fa03 f200 	lsl.w	r2, r3, r0
10000512:	d1f8      	bne.n	10000506 <find_offset_for_program.isra.0+0x4a>
10000514:	f06f 0008 	mvn.w	r0, #8
10000518:	f85d 4b04 	ldr.w	r4, [sp], #4
1000051c:	4770      	bx	lr
1000051e:	f04f 30ff 	mov.w	r0, #4294967295	; 0xffffffff
10000522:	e7e5      	b.n	100004f0 <find_offset_for_program.isra.0+0x34>
10000524:	200010c4 	.word	0x200010c4

10000528 <pio_add_program>:
10000528:	b5f8      	push	{r3, r4, r5, r6, r7, lr}
1000052a:	460d      	mov	r5, r1
1000052c:	4606      	mov	r6, r0
1000052e:	f000 f8c5 	bl	100006bc <hw_claim_lock>
10000532:	f995 2005 	ldrsb.w	r2, [r5, #5]
10000536:	4607      	mov	r7, r0
10000538:	7929      	ldrb	r1, [r5, #4]
1000053a:	4630      	mov	r0, r6
1000053c:	f7ff ffbe 	bl	100004bc <find_offset_for_program.isra.0>
10000540:	1e04      	subs	r4, r0, #0
10000542:	db05      	blt.n	10000550 <pio_add_program+0x28>
10000544:	4622      	mov	r2, r4
10000546:	4629      	mov	r1, r5
10000548:	4630      	mov	r0, r6
1000054a:	f7ff ff85 	bl	10000458 <add_program_at_offset>
1000054e:	4604      	mov	r4, r0
10000550:	4638      	mov	r0, r7
10000552:	f000 f8c5 	bl	100006e0 <hw_claim_unlock>
10000556:	4620      	mov	r0, r4
10000558:	bdf8      	pop	{r3, r4, r5, r6, r7, pc}
1000055a:	bf00      	nop

1000055c <pio_sm_set_consecutive_pindirs>:
1000055c:	e92d 41f0 	stmdb	sp!, {r4, r5, r6, r7, r8, lr}
10000560:	f8d0 4168 	ldr.w	r4, [r0, #360]	; 0x168
10000564:	f89d 6018 	ldrb.w	r6, [sp, #24]
10000568:	1b12      	subs	r2, r2, r4
1000056a:	2a1f      	cmp	r2, #31
1000056c:	d83a      	bhi.n	100005e4 <pio_sm_set_consecutive_pindirs+0x88>
1000056e:	f24e 079f 	movw	r7, #57503	; 0xe09f
10000572:	f24e 0580 	movw	r5, #57472	; 0xe080
10000576:	f44f 3400 	mov.w	r4, #131072	; 0x20000
1000057a:	eb01 0c41 	add.w	ip, r1, r1, lsl #1
1000057e:	eb00 0ecc 	add.w	lr, r0, ip, lsl #3
10000582:	2e00      	cmp	r6, #0
10000584:	bf18      	it	ne
10000586:	463d      	movne	r5, r7
10000588:	f50e 5e43 	add.w	lr, lr, #12480	; 0x30c0
1000058c:	eb00 0ccc 	add.w	ip, r0, ip, lsl #3
10000590:	2b05      	cmp	r3, #5
10000592:	f8dc 70dc 	ldr.w	r7, [ip, #220]	; 0xdc
10000596:	ea4f 0841 	mov.w	r8, r1, lsl #1
1000059a:	f8dc 60cc 	ldr.w	r6, [ip, #204]	; 0xcc
1000059e:	f10e 0e0c 	add.w	lr, lr, #12
100005a2:	f8ce 4000 	str.w	r4, [lr]
100005a6:	d90c      	bls.n	100005c2 <pio_sm_set_consecutive_pindirs+0x66>
100005a8:	0154      	lsls	r4, r2, #5
100005aa:	3b05      	subs	r3, #5
100005ac:	f044 54a0 	orr.w	r4, r4, #335544320	; 0x14000000
100005b0:	3205      	adds	r2, #5
100005b2:	2b05      	cmp	r3, #5
100005b4:	f8cc 40dc 	str.w	r4, [ip, #220]	; 0xdc
100005b8:	f002 021f 	and.w	r2, r2, #31
100005bc:	f8cc 50d8 	str.w	r5, [ip, #216]	; 0xd8
100005c0:	d8f2      	bhi.n	100005a8 <pio_sm_set_consecutive_pindirs+0x4c>
100005c2:	4441      	add	r1, r8
100005c4:	eb00 04c1 	add.w	r4, r0, r1, lsl #3
100005c8:	2000      	movs	r0, #0
100005ca:	0151      	lsls	r1, r2, #5
100005cc:	ea41 6383 	orr.w	r3, r1, r3, lsl #26
100005d0:	f8c4 30dc 	str.w	r3, [r4, #220]	; 0xdc
100005d4:	f8c4 50d8 	str.w	r5, [r4, #216]	; 0xd8
100005d8:	f8c4 70dc 	str.w	r7, [r4, #220]	; 0xdc
100005dc:	f8c4 60cc 	str.w	r6, [r4, #204]	; 0xcc
100005e0:	e8bd 81f0 	ldmia.w	sp!, {r4, r5, r6, r7, r8, pc}
100005e4:	f06f 0004 	mvn.w	r0, #4
100005e8:	e7fa      	b.n	100005e0 <pio_sm_set_consecutive_pindirs+0x84>
100005ea:	bf00      	nop

100005ec <pio_sm_init>:
100005ec:	b5f0      	push	{r4, r5, r6, r7, lr}
100005ee:	2501      	movs	r5, #1
100005f0:	6804      	ldr	r4, [r0, #0]
100005f2:	408d      	lsls	r5, r1
100005f4:	ea24 0405 	bic.w	r4, r4, r5
100005f8:	6004      	str	r4, [r0, #0]
100005fa:	b393      	cbz	r3, 10000662 <pio_sm_init+0x76>
100005fc:	e9d3 5601 	ldrd	r5, r6, [r3, #4]
10000600:	681f      	ldr	r7, [r3, #0]
10000602:	68dc      	ldr	r4, [r3, #12]
10000604:	eb01 0341 	add.w	r3, r1, r1, lsl #1
10000608:	eb00 03c3 	add.w	r3, r0, r3, lsl #3
1000060c:	f8c3 70c8 	str.w	r7, [r3, #200]	; 0xc8
10000610:	ea4f 0c41 	mov.w	ip, r1, lsl #1
10000614:	f8c3 60d0 	str.w	r6, [r3, #208]	; 0xd0
10000618:	f8c3 50cc 	str.w	r5, [r3, #204]	; 0xcc
1000061c:	f8c3 40dc 	str.w	r4, [r3, #220]	; 0xdc
10000620:	f04f 3e01 	mov.w	lr, #16843009	; 0x1010101
10000624:	f04f 4600 	mov.w	r6, #2147483648	; 0x80000000
10000628:	f002 041f 	and.w	r4, r2, #31
1000062c:	2201      	movs	r2, #1
1000062e:	448c      	add	ip, r1
10000630:	eb00 03cc 	add.w	r3, r0, ip, lsl #3
10000634:	f503 5386 	add.w	r3, r3, #4288	; 0x10c0
10000638:	f101 0708 	add.w	r7, r1, #8
1000063c:	1d0d      	adds	r5, r1, #4
1000063e:	fa0e f101 	lsl.w	r1, lr, r1
10000642:	611e      	str	r6, [r3, #16]
10000644:	eb00 0ccc 	add.w	ip, r0, ip, lsl #3
10000648:	611e      	str	r6, [r3, #16]
1000064a:	fa02 f505 	lsl.w	r5, r2, r5
1000064e:	6081      	str	r1, [r0, #8]
10000650:	40ba      	lsls	r2, r7
10000652:	f500 5000 	add.w	r0, r0, #8192	; 0x2000
10000656:	6005      	str	r5, [r0, #0]
10000658:	6002      	str	r2, [r0, #0]
1000065a:	2000      	movs	r0, #0
1000065c:	f8cc 40d8 	str.w	r4, [ip, #216]	; 0xd8
10000660:	bdf0      	pop	{r4, r5, r6, r7, pc}
10000662:	f44f 3780 	mov.w	r7, #65536	; 0x10000
10000666:	f44f 2640 	mov.w	r6, #786432	; 0xc0000
1000066a:	f44f 35f8 	mov.w	r5, #126976	; 0x1f000
1000066e:	eb01 0441 	add.w	r4, r1, r1, lsl #1
10000672:	eb00 04c4 	add.w	r4, r0, r4, lsl #3
10000676:	f8c4 70c8 	str.w	r7, [r4, #200]	; 0xc8
1000067a:	ea4f 0c41 	mov.w	ip, r1, lsl #1
1000067e:	f8c4 60d0 	str.w	r6, [r4, #208]	; 0xd0
10000682:	f8c4 50cc 	str.w	r5, [r4, #204]	; 0xcc
10000686:	f8c4 30dc 	str.w	r3, [r4, #220]	; 0xdc
1000068a:	e7c9      	b.n	10000620 <pio_sm_init+0x34>

1000068c <panic>:
1000068c:	b40f      	push	{r0, r1, r2, r3}
1000068e:	b500      	push	{lr}
10000690:	b083      	sub	sp, #12
10000692:	9c04      	ldr	r4, [sp, #16]
10000694:	4807      	ldr	r0, [pc, #28]	; (100006b4 <panic+0x28>)
10000696:	f001 fba7 	bl	10001de8 <__wrap_puts>
1000069a:	b13c      	cbz	r4, 100006ac <panic+0x20>
1000069c:	a905      	add	r1, sp, #20
1000069e:	4620      	mov	r0, r4
100006a0:	9101      	str	r1, [sp, #4]
100006a2:	f001 fa37 	bl	10001b14 <weak_raw_vprintf>
100006a6:	4804      	ldr	r0, [pc, #16]	; (100006b8 <panic+0x2c>)
100006a8:	f001 fb9e 	bl	10001de8 <__wrap_puts>
100006ac:	2001      	movs	r0, #1
100006ae:	f001 fa49 	bl	10001b44 <_exit>
100006b2:	bf00      	nop
100006b4:	100044d0 	.word	0x100044d0
100006b8:	100044e0 	.word	0x100044e0

100006bc <hw_claim_lock>:
100006bc:	f3ef 8010 	mrs	r0, PRIMASK
100006c0:	b672      	cpsid	i
100006c2:	4b06      	ldr	r3, [pc, #24]	; (100006dc <hw_claim_lock+0x20>)
100006c4:	e8d3 1fcf 	ldaexb	r1, [r3]
100006c8:	2201      	movs	r2, #1
100006ca:	2900      	cmp	r1, #0
100006cc:	d1fa      	bne.n	100006c4 <hw_claim_lock+0x8>
100006ce:	e8c3 2f41 	strexb	r1, r2, [r3]
100006d2:	2900      	cmp	r1, #0
100006d4:	d1f6      	bne.n	100006c4 <hw_claim_lock+0x8>
100006d6:	f3bf 8f5f 	dmb	sy
100006da:	4770      	bx	lr
100006dc:	20000f4b 	.word	0x20000f4b

100006e0 <hw_claim_unlock>:
100006e0:	2300      	movs	r3, #0
100006e2:	4a03      	ldr	r2, [pc, #12]	; (100006f0 <hw_claim_unlock+0x10>)
100006e4:	e8c2 3f8f 	stlb	r3, [r2]
100006e8:	f380 8810 	msr	PRIMASK, r0
100006ec:	4770      	bx	lr
100006ee:	bf00      	nop
100006f0:	20000f4b 	.word	0x20000f4b

100006f4 <hw_claim_or_assert>:
100006f4:	b570      	push	{r4, r5, r6, lr}
100006f6:	f3ef 8510 	mrs	r5, PRIMASK
100006fa:	b672      	cpsid	i
100006fc:	4c13      	ldr	r4, [pc, #76]	; (1000074c <hw_claim_or_assert+0x58>)
100006fe:	e8d4 cfcf 	ldaexb	ip, [r4]
10000702:	2601      	movs	r6, #1
10000704:	f1bc 0f00 	cmp.w	ip, #0
10000708:	d1f9      	bne.n	100006fe <hw_claim_or_assert+0xa>
1000070a:	e8c4 6f4c 	strexb	ip, r6, [r4]
1000070e:	f1bc 0f00 	cmp.w	ip, #0
10000712:	d1f4      	bne.n	100006fe <hw_claim_or_assert+0xa>
10000714:	f3bf 8f5f 	dmb	sy
10000718:	f04f 0c01 	mov.w	ip, #1
1000071c:	ea4f 0ed1 	mov.w	lr, r1, lsr #3
10000720:	f001 0307 	and.w	r3, r1, #7
10000724:	fa0c f303 	lsl.w	r3, ip, r3
10000728:	f810 c00e 	ldrb.w	ip, [r0, lr]
1000072c:	ea1c 0603 	ands.w	r6, ip, r3
10000730:	d108      	bne.n	10000744 <hw_claim_or_assert+0x50>
10000732:	ea4c 0303 	orr.w	r3, ip, r3
10000736:	f800 300e 	strb.w	r3, [r0, lr]
1000073a:	e8c4 6f8f 	stlb	r6, [r4]
1000073e:	f385 8810 	msr	PRIMASK, r5
10000742:	bd70      	pop	{r4, r5, r6, pc}
10000744:	4610      	mov	r0, r2
10000746:	f7ff ffa1 	bl	1000068c <panic>
1000074a:	bf00      	nop
1000074c:	20000f4b 	.word	0x20000f4b

10000750 <hw_claim_unused_from_range>:
10000750:	b5f8      	push	{r3, r4, r5, r6, r7, lr}
10000752:	f3ef 8510 	mrs	r5, PRIMASK
10000756:	b672      	cpsid	i
10000758:	4c23      	ldr	r4, [pc, #140]	; (100007e8 <hw_claim_unused_from_range+0x98>)
1000075a:	e8d4 7fcf 	ldaexb	r7, [r4]
1000075e:	2601      	movs	r6, #1
10000760:	2f00      	cmp	r7, #0
10000762:	d1fa      	bne.n	1000075a <hw_claim_unused_from_range+0xa>
10000764:	e8c4 6f47 	strexb	r7, r6, [r4]
10000768:	2f00      	cmp	r7, #0
1000076a:	d1f6      	bne.n	1000075a <hw_claim_unused_from_range+0xa>
1000076c:	f3bf 8f5f 	dmb	sy
10000770:	429a      	cmp	r2, r3
10000772:	d827      	bhi.n	100007c4 <hw_claim_unused_from_range+0x74>
10000774:	2601      	movs	r6, #1
10000776:	08d7      	lsrs	r7, r2, #3
10000778:	f810 e007 	ldrb.w	lr, [r0, r7]
1000077c:	f002 0c07 	and.w	ip, r2, #7
10000780:	fa06 fc0c 	lsl.w	ip, r6, ip
10000784:	ea1e 0f0c 	tst.w	lr, ip
10000788:	eb00 07d2 	add.w	r7, r0, r2, lsr #3
1000078c:	d10d      	bne.n	100007aa <hw_claim_unused_from_range+0x5a>
1000078e:	e025      	b.n	100007dc <hw_claim_unused_from_range+0x8c>
10000790:	ea4f 0ed2 	mov.w	lr, r2, lsr #3
10000794:	f810 e00e 	ldrb.w	lr, [r0, lr]
10000798:	f002 0c07 	and.w	ip, r2, #7
1000079c:	fa06 fc0c 	lsl.w	ip, r6, ip
100007a0:	ea1e 0f0c 	tst.w	lr, ip
100007a4:	eb00 07d2 	add.w	r7, r0, r2, lsr #3
100007a8:	d018      	beq.n	100007dc <hw_claim_unused_from_range+0x8c>
100007aa:	3201      	adds	r2, #1
100007ac:	4293      	cmp	r3, r2
100007ae:	d2ef      	bcs.n	10000790 <hw_claim_unused_from_range+0x40>
100007b0:	f04f 30ff 	mov.w	r0, #4294967295	; 0xffffffff
100007b4:	2300      	movs	r3, #0
100007b6:	e8c4 3f8f 	stlb	r3, [r4]
100007ba:	f385 8810 	msr	PRIMASK, r5
100007be:	4298      	cmp	r0, r3
100007c0:	db07      	blt.n	100007d2 <hw_claim_unused_from_range+0x82>
100007c2:	bdf8      	pop	{r3, r4, r5, r6, r7, pc}
100007c4:	2300      	movs	r3, #0
100007c6:	e8c4 3f8f 	stlb	r3, [r4]
100007ca:	f385 8810 	msr	PRIMASK, r5
100007ce:	f04f 30ff 	mov.w	r0, #4294967295	; 0xffffffff
100007d2:	2900      	cmp	r1, #0
100007d4:	d0f5      	beq.n	100007c2 <hw_claim_unused_from_range+0x72>
100007d6:	9806      	ldr	r0, [sp, #24]
100007d8:	f7ff ff58 	bl	1000068c <panic>
100007dc:	ea4e 0c0c 	orr.w	ip, lr, ip
100007e0:	4610      	mov	r0, r2
100007e2:	f887 c000 	strb.w	ip, [r7]
100007e6:	e7e5      	b.n	100007b4 <hw_claim_unused_from_range+0x64>
100007e8:	20000f4b 	.word	0x20000f4b

100007ec <next_striped_spin_lock_num>:
100007ec:	4a04      	ldr	r2, [pc, #16]	; (10000800 <next_striped_spin_lock_num+0x14>)
100007ee:	7810      	ldrb	r0, [r2, #0]
100007f0:	1c43      	adds	r3, r0, #1
100007f2:	b2db      	uxtb	r3, r3
100007f4:	2b17      	cmp	r3, #23
100007f6:	bf88      	it	hi
100007f8:	2310      	movhi	r3, #16
100007fa:	7013      	strb	r3, [r2, #0]
100007fc:	4770      	bx	lr
100007fe:	bf00      	nop
10000800:	20000a09 	.word	0x20000a09

10000804 <spin_lock_claim_unused>:
10000804:	b510      	push	{r4, lr}
10000806:	4c05      	ldr	r4, [pc, #20]	; (1000081c <spin_lock_claim_unused+0x18>)
10000808:	b082      	sub	sp, #8
1000080a:	4601      	mov	r1, r0
1000080c:	231f      	movs	r3, #31
1000080e:	2218      	movs	r2, #24
10000810:	9400      	str	r4, [sp, #0]
10000812:	4803      	ldr	r0, [pc, #12]	; (10000820 <spin_lock_claim_unused+0x1c>)
10000814:	f7ff ff9c 	bl	10000750 <hw_claim_unused_from_range>
10000818:	b002      	add	sp, #8
1000081a:	bd10      	pop	{r4, pc}
1000081c:	100044e4 	.word	0x100044e4
10000820:	20001394 	.word	0x20001394

10000824 <spinlock_set_extexclall>:
10000824:	f04f 22e0 	mov.w	r2, #3758153728	; 0xe000e000
10000828:	6893      	ldr	r3, [r2, #8]
1000082a:	f043 5300 	orr.w	r3, r3, #536870912	; 0x20000000
1000082e:	6093      	str	r3, [r2, #8]
10000830:	4770      	bx	lr
10000832:	bf00      	nop

10000834 <spin_locks_reset>:
10000834:	2100      	movs	r1, #0
10000836:	4b04      	ldr	r3, [pc, #16]	; (10000848 <spin_locks_reset+0x14>)
10000838:	f103 0220 	add.w	r2, r3, #32
1000083c:	e8c3 1f8f 	stlb	r1, [r3]
10000840:	3301      	adds	r3, #1
10000842:	4293      	cmp	r3, r2
10000844:	d1fa      	bne.n	1000083c <spin_locks_reset+0x8>
10000846:	4770      	bx	lr
10000848:	20000f40 	.word	0x20000f40

1000084c <gpio_set_function>:
1000084c:	b410      	push	{r4}
1000084e:	f44f 7480 	mov.w	r4, #256	; 0x100
10000852:	4b0c      	ldr	r3, [pc, #48]	; (10000884 <gpio_set_function+0x38>)
10000854:	f853 2020 	ldr.w	r2, [r3, r0, lsl #2]
10000858:	eb03 0380 	add.w	r3, r3, r0, lsl #2
1000085c:	00c0      	lsls	r0, r0, #3
1000085e:	f082 0240 	eor.w	r2, r2, #64	; 0x40
10000862:	f100 4080 	add.w	r0, r0, #1073741824	; 0x40000000
10000866:	f503 5c80 	add.w	ip, r3, #4096	; 0x1000
1000086a:	f002 02c0 	and.w	r2, r2, #192	; 0xc0
1000086e:	f500 3020 	add.w	r0, r0, #163840	; 0x28000
10000872:	f503 5340 	add.w	r3, r3, #12288	; 0x3000
10000876:	f8cc 2000 	str.w	r2, [ip]
1000087a:	6041      	str	r1, [r0, #4]
1000087c:	601c      	str	r4, [r3, #0]
1000087e:	f85d 4b04 	ldr.w	r4, [sp], #4
10000882:	4770      	bx	lr
10000884:	40038004 	.word	0x40038004

10000888 <gpio_set_pulls>:
10000888:	4b0a      	ldr	r3, [pc, #40]	; (100008b4 <gpio_set_pulls+0x2c>)
1000088a:	2900      	cmp	r1, #0
1000088c:	bf14      	ite	ne
1000088e:	f04f 0c08 	movne.w	ip, #8
10000892:	f04f 0c00 	moveq.w	ip, #0
10000896:	eb03 0180 	add.w	r1, r3, r0, lsl #2
1000089a:	b10a      	cbz	r2, 100008a0 <gpio_set_pulls+0x18>
1000089c:	f04c 0c04 	orr.w	ip, ip, #4
100008a0:	f853 3020 	ldr.w	r3, [r3, r0, lsl #2]
100008a4:	f501 5180 	add.w	r1, r1, #4096	; 0x1000
100008a8:	ea83 030c 	eor.w	r3, r3, ip
100008ac:	f003 030c 	and.w	r3, r3, #12
100008b0:	600b      	str	r3, [r1, #0]
100008b2:	4770      	bx	lr
100008b4:	40038004 	.word	0x40038004

100008b8 <gpio_init>:
100008b8:	b430      	push	{r4, r5}
100008ba:	2300      	movs	r3, #0
100008bc:	ec43 0044 	gpioc_bit_oe_put r0, r3
100008c0:	ec43 0040 	gpioc_bit_out_put r0, r3
100008c4:	2505      	movs	r5, #5
100008c6:	f44f 7480 	mov.w	r4, #256	; 0x100
100008ca:	4b0b      	ldr	r3, [pc, #44]	; (100008f8 <gpio_init+0x40>)
100008cc:	00c2      	lsls	r2, r0, #3
100008ce:	f853 1020 	ldr.w	r1, [r3, r0, lsl #2]
100008d2:	eb03 0080 	add.w	r0, r3, r0, lsl #2
100008d6:	f081 0140 	eor.w	r1, r1, #64	; 0x40
100008da:	f102 4380 	add.w	r3, r2, #1073741824	; 0x40000000
100008de:	f503 3320 	add.w	r3, r3, #163840	; 0x28000
100008e2:	f001 02c0 	and.w	r2, r1, #192	; 0xc0
100008e6:	f500 5180 	add.w	r1, r0, #4096	; 0x1000
100008ea:	f500 5040 	add.w	r0, r0, #12288	; 0x3000
100008ee:	600a      	str	r2, [r1, #0]
100008f0:	605d      	str	r5, [r3, #4]
100008f2:	6004      	str	r4, [r0, #0]
100008f4:	bc30      	pop	{r4, r5}
100008f6:	4770      	bx	lr
100008f8:	40038004 	.word	0x40038004

100008fc <runtime_init_per_core_irq_priorities>:
100008fc:	f04f 3080 	mov.w	r0, #2155905152	; 0x80808080
10000900:	4b03      	ldr	r3, [pc, #12]	; (10000910 <runtime_init_per_core_irq_priorities+0x14>)
10000902:	4904      	ldr	r1, [pc, #16]	; (10000914 <runtime_init_per_core_irq_priorities+0x18>)
10000904:	461a      	mov	r2, r3
10000906:	3304      	adds	r3, #4
10000908:	428b      	cmp	r3, r1
1000090a:	6010      	str	r0, [r2, #0]
1000090c:	d1fa      	bne.n	10000904 <runtime_init_per_core_irq_priorities+0x8>
1000090e:	4770      	bx	lr
10000910:	e000e400 	.word	0xe000e400
10000914:	e000e434 	.word	0xe000e434

10000918 <irq_set_enabled>:
10000918:	2301      	movs	r3, #1
1000091a:	f000 021f 	and.w	r2, r0, #31
1000091e:	4093      	lsls	r3, r2
10000920:	0940      	lsrs	r0, r0, #5
10000922:	b141      	cbz	r1, 10000936 <irq_set_enabled+0x1e>
10000924:	0080      	lsls	r0, r0, #2
10000926:	f100 4060 	add.w	r0, r0, #3758096384	; 0xe0000000
1000092a:	f500 4061 	add.w	r0, r0, #57600	; 0xe100
1000092e:	f8c0 3180 	str.w	r3, [r0, #384]	; 0x180
10000932:	6003      	str	r3, [r0, #0]
10000934:	4770      	bx	lr
10000936:	4a02      	ldr	r2, [pc, #8]	; (10000940 <irq_set_enabled+0x28>)
10000938:	3020      	adds	r0, #32
1000093a:	f842 3020 	str.w	r3, [r2, r0, lsl #2]
1000093e:	4770      	bx	lr
10000940:	e000e100 	.word	0xe000e100

10000944 <irq_is_enabled>:
10000944:	2301      	movs	r3, #1
10000946:	4a06      	ldr	r2, [pc, #24]	; (10000960 <irq_is_enabled+0x1c>)
10000948:	0941      	lsrs	r1, r0, #5
1000094a:	f852 2021 	ldr.w	r2, [r2, r1, lsl #2]
1000094e:	f000 001f 	and.w	r0, r0, #31
10000952:	fa03 f000 	lsl.w	r0, r3, r0
10000956:	4210      	tst	r0, r2
10000958:	bf14      	ite	ne
1000095a:	4618      	movne	r0, r3
1000095c:	2000      	moveq	r0, #0
1000095e:	4770      	bx	lr
10000960:	e000e100 	.word	0xe000e100

10000964 <irq_set_pending>:
10000964:	2201      	movs	r2, #1
10000966:	0943      	lsrs	r3, r0, #5
10000968:	4904      	ldr	r1, [pc, #16]	; (1000097c <irq_set_pending+0x18>)
1000096a:	f000 001f 	and.w	r0, r0, #31
1000096e:	fa02 f000 	lsl.w	r0, r2, r0
10000972:	3340      	adds	r3, #64	; 0x40
10000974:	f841 0023 	str.w	r0, [r1, r3, lsl #2]
10000978:	4770      	bx	lr
1000097a:	bf00      	nop
1000097c:	e000e100 	.word	0xe000e100

10000980 <irq_has_shared_handler>:
10000980:	4b06      	ldr	r3, [pc, #24]	; (1000099c <irq_has_shared_handler+0x1c>)
10000982:	3010      	adds	r0, #16
10000984:	689b      	ldr	r3, [r3, #8]
10000986:	f853 0020 	ldr.w	r0, [r3, r0, lsl #2]
1000098a:	b128      	cbz	r0, 10000998 <irq_has_shared_handler+0x18>
1000098c:	4b04      	ldr	r3, [pc, #16]	; (100009a0 <irq_has_shared_handler+0x20>)
1000098e:	1ac0      	subs	r0, r0, r3
10000990:	282f      	cmp	r0, #47	; 0x2f
10000992:	bf8c      	ite	hi
10000994:	2000      	movhi	r0, #0
10000996:	2001      	movls	r0, #1
10000998:	4770      	bx	lr
1000099a:	bf00      	nop
1000099c:	e000ed00 	.word	0xe000ed00
100009a0:	20000a0c 	.word	0x20000a0c

100009a4 <irq_set_exclusive_handler>:
100009a4:	b5f8      	push	{r3, r4, r5, r6, r7, lr}
100009a6:	460d      	mov	r5, r1
100009a8:	f3ef 8710 	mrs	r7, PRIMASK
100009ac:	b672      	cpsid	i
100009ae:	4e12      	ldr	r6, [pc, #72]	; (100009f8 <irq_set_exclusive_handler+0x54>)
100009b0:	e8d6 2fcf 	ldaexb	r2, [r6]
100009b4:	2301      	movs	r3, #1
100009b6:	2a00      	cmp	r2, #0
100009b8:	d1fa      	bne.n	100009b0 <irq_set_exclusive_handler+0xc>
100009ba:	e8c6 3f42 	strexb	r2, r3, [r6]
100009be:	2a00      	cmp	r2, #0
100009c0:	d1f6      	bne.n	100009b0 <irq_set_exclusive_handler+0xc>
100009c2:	f3bf 8f5f 	dmb	sy
100009c6:	4b0d      	ldr	r3, [pc, #52]	; (100009fc <irq_set_exclusive_handler+0x58>)
100009c8:	f100 0410 	add.w	r4, r0, #16
100009cc:	689b      	ldr	r3, [r3, #8]
100009ce:	4a0c      	ldr	r2, [pc, #48]	; (10000a00 <irq_set_exclusive_handler+0x5c>)
100009d0:	f853 3024 	ldr.w	r3, [r3, r4, lsl #2]
100009d4:	4293      	cmp	r3, r2
100009d6:	d003      	beq.n	100009e0 <irq_set_exclusive_handler+0x3c>
100009d8:	4299      	cmp	r1, r3
100009da:	d001      	beq.n	100009e0 <irq_set_exclusive_handler+0x3c>
100009dc:	f000 ff96 	bl	1000190c <hard_assertion_failure>
100009e0:	4b06      	ldr	r3, [pc, #24]	; (100009fc <irq_set_exclusive_handler+0x58>)
100009e2:	689b      	ldr	r3, [r3, #8]
100009e4:	f843 5024 	str.w	r5, [r3, r4, lsl #2]
100009e8:	f3bf 8f5f 	dmb	sy
100009ec:	2300      	movs	r3, #0
100009ee:	e8c6 3f8f 	stlb	r3, [r6]
100009f2:	f387 8810 	msr	PRIMASK, r7
100009f6:	bdf8      	pop	{r3, r4, r5, r6, r7, pc}
100009f8:	20000f49 	.word	0x20000f49
100009fc:	e000ed00 	.word	0xe000ed00
10000a00:	1000011d 	.word	0x1000011d

10000a04 <irq_add_shared_handler>:
10000a04:	e92d 4ff0 	stmdb	sp!, {r4, r5, r6, r7, r8, r9, sl, fp, lr}
10000a08:	4680      	mov	r8, r0
10000a0a:	468b      	mov	fp, r1
10000a0c:	4617      	mov	r7, r2
10000a0e:	b083      	sub	sp, #12
10000a10:	f3ef 8310 	mrs	r3, PRIMASK
10000a14:	b672      	cpsid	i
10000a16:	f8df a1d0 	ldr.w	sl, [pc, #464]	; 10000be8 <irq_add_shared_handler+0x1e4>
10000a1a:	9300      	str	r3, [sp, #0]
10000a1c:	e8da 1fcf 	ldaexb	r1, [sl]
10000a20:	2301      	movs	r3, #1
10000a22:	2900      	cmp	r1, #0
10000a24:	d1fa      	bne.n	10000a1c <irq_add_shared_handler+0x18>
10000a26:	e8ca 3f41 	strexb	r1, r3, [sl]
10000a2a:	2900      	cmp	r1, #0
10000a2c:	d1f6      	bne.n	10000a1c <irq_add_shared_handler+0x18>
10000a2e:	f3bf 8f5f 	dmb	sy
10000a32:	4e66      	ldr	r6, [pc, #408]	; (10000bcc <irq_add_shared_handler+0x1c8>)
10000a34:	f996 5000 	ldrsb.w	r5, [r6]
10000a38:	2d00      	cmp	r5, #0
10000a3a:	f2c0 80a0 	blt.w	10000b7e <irq_add_shared_handler+0x17a>
10000a3e:	4c64      	ldr	r4, [pc, #400]	; (10000bd0 <irq_add_shared_handler+0x1cc>)
10000a40:	eb05 0345 	add.w	r3, r5, r5, lsl #1
10000a44:	eb04 0083 	add.w	r0, r4, r3, lsl #2
10000a48:	7981      	ldrb	r1, [r0, #6]
10000a4a:	f108 0810 	add.w	r8, r8, #16
10000a4e:	7031      	strb	r1, [r6, #0]
10000a50:	4960      	ldr	r1, [pc, #384]	; (10000bd4 <irq_add_shared_handler+0x1d0>)
10000a52:	009b      	lsls	r3, r3, #2
10000a54:	6889      	ldr	r1, [r1, #8]
10000a56:	4699      	mov	r9, r3
10000a58:	f851 e028 	ldr.w	lr, [r1, r8, lsl #2]
10000a5c:	4606      	mov	r6, r0
10000a5e:	ebae 0104 	sub.w	r1, lr, r4
10000a62:	292f      	cmp	r1, #47	; 0x2f
10000a64:	ea4f 0245 	mov.w	r2, r5, lsl #1
10000a68:	d931      	bls.n	10000ace <irq_add_shared_handler+0xca>
10000a6a:	4b5b      	ldr	r3, [pc, #364]	; (10000bd8 <irq_add_shared_handler+0x1d4>)
10000a6c:	459e      	cmp	lr, r3
10000a6e:	f040 80a2 	bne.w	10000bb6 <irq_add_shared_handler+0x1b2>
10000a72:	4b5a      	ldr	r3, [pc, #360]	; (10000bdc <irq_add_shared_handler+0x1d8>)
10000a74:	f109 0902 	add.w	r9, r9, #2
10000a78:	44a1      	add	r9, r4
10000a7a:	3b04      	subs	r3, #4
10000a7c:	eba3 0309 	sub.w	r3, r3, r9
10000a80:	f3c3 034a 	ubfx	r3, r3, #1, #11
10000a84:	ea6f 43c3 	mvn.w	r3, r3, lsl #19
10000a88:	f44f 4121 	mov.w	r1, #41216	; 0xa100
10000a8c:	ea6f 43d3 	mvn.w	r3, r3, lsr #19
10000a90:	4415      	add	r5, r2
10000a92:	f824 1025 	strh.w	r1, [r4, r5, lsl #2]
10000a96:	eb04 0585 	add.w	r5, r4, r5, lsl #2
10000a9a:	806b      	strh	r3, [r5, #2]
10000a9c:	f64b 5301 	movw	r3, #48385	; 0xbd01
10000aa0:	80ab      	strh	r3, [r5, #4]
10000aa2:	23ff      	movs	r3, #255	; 0xff
10000aa4:	f046 0e01 	orr.w	lr, r6, #1
10000aa8:	71ef      	strb	r7, [r5, #7]
10000aaa:	f8c5 b008 	str.w	fp, [r5, #8]
10000aae:	71ab      	strb	r3, [r5, #6]
10000ab0:	4b48      	ldr	r3, [pc, #288]	; (10000bd4 <irq_add_shared_handler+0x1d0>)
10000ab2:	689b      	ldr	r3, [r3, #8]
10000ab4:	f843 e028 	str.w	lr, [r3, r8, lsl #2]
10000ab8:	f3bf 8f5f 	dmb	sy
10000abc:	2300      	movs	r3, #0
10000abe:	e8ca 3f8f 	stlb	r3, [sl]
10000ac2:	9b00      	ldr	r3, [sp, #0]
10000ac4:	f383 8810 	msr	PRIMASK, r3
10000ac8:	b003      	add	sp, #12
10000aca:	e8bd 8ff0 	ldmia.w	sp!, {r4, r5, r6, r7, r8, r9, sl, fp, pc}
10000ace:	f02e 0101 	bic.w	r1, lr, #1
10000ad2:	f891 c007 	ldrb.w	ip, [r1, #7]
10000ad6:	45bc      	cmp	ip, r7
10000ad8:	d82b      	bhi.n	10000b32 <irq_add_shared_handler+0x12e>
10000ada:	f44f 4621 	mov.w	r6, #41216	; 0xa100
10000ade:	52e6      	strh	r6, [r4, r3]
10000ae0:	4b3e      	ldr	r3, [pc, #248]	; (10000bdc <irq_add_shared_handler+0x1d8>)
10000ae2:	f109 0602 	add.w	r6, r9, #2
10000ae6:	4426      	add	r6, r4
10000ae8:	3b04      	subs	r3, #4
10000aea:	f109 0904 	add.w	r9, r9, #4
10000aee:	1b9b      	subs	r3, r3, r6
10000af0:	44a1      	add	r9, r4
10000af2:	1f0e      	subs	r6, r1, #4
10000af4:	71c7      	strb	r7, [r0, #7]
10000af6:	eba6 0609 	sub.w	r6, r6, r9
10000afa:	4f39      	ldr	r7, [pc, #228]	; (10000be0 <irq_add_shared_handler+0x1dc>)
10000afc:	f3c6 064a 	ubfx	r6, r6, #1, #11
10000b00:	433e      	orrs	r6, r7
10000b02:	8086      	strh	r6, [r0, #4]
10000b04:	f3c3 034a 	ubfx	r3, r3, #1, #11
10000b08:	4e36      	ldr	r6, [pc, #216]	; (10000be4 <irq_add_shared_handler+0x1e0>)
10000b0a:	433b      	orrs	r3, r7
10000b0c:	8043      	strh	r3, [r0, #2]
10000b0e:	f64a 25aa 	movw	r5, #43690	; 0xaaaa
10000b12:	460b      	mov	r3, r1
10000b14:	1b1b      	subs	r3, r3, r4
10000b16:	415b      	adcs	r3, r3
10000b18:	435d      	muls	r5, r3
10000b1a:	0d2d      	lsrs	r5, r5, #20
10000b1c:	f8c0 b008 	str.w	fp, [r0, #8]
10000b20:	7185      	strb	r5, [r0, #6]
10000b22:	f040 0e01 	orr.w	lr, r0, #1
10000b26:	600e      	str	r6, [r1, #0]
10000b28:	e7c2      	b.n	10000ab0 <irq_add_shared_handler+0xac>
10000b2a:	79c0      	ldrb	r0, [r0, #7]
10000b2c:	42b8      	cmp	r0, r7
10000b2e:	d92b      	bls.n	10000b88 <irq_add_shared_handler+0x184>
10000b30:	4661      	mov	r1, ip
10000b32:	f991 3006 	ldrsb.w	r3, [r1, #6]
10000b36:	eb03 0043 	add.w	r0, r3, r3, lsl #1
10000b3a:	eb04 0080 	add.w	r0, r4, r0, lsl #2
10000b3e:	2b00      	cmp	r3, #0
10000b40:	4684      	mov	ip, r0
10000b42:	daf2      	bge.n	10000b2a <irq_add_shared_handler+0x126>
10000b44:	f64b 5001 	movw	r0, #48385	; 0xbd01
10000b48:	9301      	str	r3, [sp, #4]
10000b4a:	1d0b      	adds	r3, r1, #4
10000b4c:	3e04      	subs	r6, #4
10000b4e:	1af6      	subs	r6, r6, r3
10000b50:	f3c6 064a 	ubfx	r6, r6, #1, #11
10000b54:	ea6f 46c6 	mvn.w	r6, r6, lsl #19
10000b58:	ea6f 46d6 	mvn.w	r6, r6, lsr #19
10000b5c:	eb02 0c05 	add.w	ip, r2, r5
10000b60:	f8df 9080 	ldr.w	r9, [pc, #128]	; 10000be4 <irq_add_shared_handler+0x1e0>
10000b64:	9b01      	ldr	r3, [sp, #4]
10000b66:	718d      	strb	r5, [r1, #6]
10000b68:	eb04 058c 	add.w	r5, r4, ip, lsl #2
10000b6c:	808e      	strh	r6, [r1, #4]
10000b6e:	f844 902c 	str.w	r9, [r4, ip, lsl #2]
10000b72:	80a8      	strh	r0, [r5, #4]
10000b74:	71ab      	strb	r3, [r5, #6]
10000b76:	71ef      	strb	r7, [r5, #7]
10000b78:	f8c5 b008 	str.w	fp, [r5, #8]
10000b7c:	e798      	b.n	10000ab0 <irq_add_shared_handler+0xac>
10000b7e:	f000 fec5 	bl	1000190c <hard_assertion_failure>
10000b82:	f996 5000 	ldrsb.w	r5, [r6]
10000b86:	e75a      	b.n	10000a3e <irq_add_shared_handler+0x3a>
10000b88:	8888      	ldrh	r0, [r1, #4]
10000b8a:	9301      	str	r3, [sp, #4]
10000b8c:	0540      	lsls	r0, r0, #21
10000b8e:	f101 0304 	add.w	r3, r1, #4
10000b92:	d415      	bmi.n	10000bc0 <irq_add_shared_handler+0x1bc>
10000b94:	ea4f 5c60 	mov.w	ip, r0, asr #21
10000b98:	f06f 0007 	mvn.w	r0, #7
10000b9c:	f10c 0c02 	add.w	ip, ip, #2
10000ba0:	eba0 0009 	sub.w	r0, r0, r9
10000ba4:	eb03 0c4c 	add.w	ip, r3, ip, lsl #1
10000ba8:	1b00      	subs	r0, r0, r4
10000baa:	4460      	add	r0, ip
10000bac:	f3c0 004a 	ubfx	r0, r0, #1, #11
10000bb0:	f440 4060 	orr.w	r0, r0, #57344	; 0xe000
10000bb4:	e7ca      	b.n	10000b4c <irq_add_shared_handler+0x148>
10000bb6:	9201      	str	r2, [sp, #4]
10000bb8:	f000 fea8 	bl	1000190c <hard_assertion_failure>
10000bbc:	9a01      	ldr	r2, [sp, #4]
10000bbe:	e758      	b.n	10000a72 <irq_add_shared_handler+0x6e>
10000bc0:	f500 10ff 	add.w	r0, r0, #2088960	; 0x1fe000
10000bc4:	f500 50ff 	add.w	r0, r0, #8160	; 0x1fe0
10000bc8:	301f      	adds	r0, #31
10000bca:	e7e3      	b.n	10000b94 <irq_add_shared_handler+0x190>
10000bcc:	20001854 	.word	0x20001854
10000bd0:	20000a0c 	.word	0x20000a0c
10000bd4:	e000ed00 	.word	0xe000ed00
10000bd8:	1000011d 	.word	0x1000011d
10000bdc:	20000a3c 	.word	0x20000a3c
10000be0:	ffffe000 	.word	0xffffe000
10000be4:	47804801 	.word	0x47804801
10000be8:	20000f49 	.word	0x20000f49

10000bec <irq_add_tail_to_free_list>:
10000bec:	e92d 41f0 	stmdb	sp!, {r4, r5, r6, r7, r8, lr}
10000bf0:	f3ef 8605 	mrs	r6, IPSR
10000bf4:	b2f6      	uxtb	r6, r6
10000bf6:	f3ef 8e10 	mrs	lr, PRIMASK
10000bfa:	b672      	cpsid	i
10000bfc:	4d20      	ldr	r5, [pc, #128]	; (10000c80 <irq_add_tail_to_free_list+0x94>)
10000bfe:	e8d5 2fcf 	ldaexb	r2, [r5]
10000c02:	2301      	movs	r3, #1
10000c04:	2a00      	cmp	r2, #0
10000c06:	d1fa      	bne.n	10000bfe <irq_add_tail_to_free_list+0x12>
10000c08:	e8c5 3f42 	strexb	r2, r3, [r5]
10000c0c:	2a00      	cmp	r2, #0
10000c0e:	d1f6      	bne.n	10000bfe <irq_add_tail_to_free_list+0x12>
10000c10:	f3bf 8f5f 	dmb	sy
10000c14:	4f1b      	ldr	r7, [pc, #108]	; (10000c84 <irq_add_tail_to_free_list+0x98>)
10000c16:	f040 0c01 	orr.w	ip, r0, #1
10000c1a:	68ba      	ldr	r2, [r7, #8]
10000c1c:	f64a 23aa 	movw	r3, #43690	; 0xaaaa
10000c20:	f852 8026 	ldr.w	r8, [r2, r6, lsl #2]
10000c24:	4c18      	ldr	r4, [pc, #96]	; (10000c88 <irq_add_tail_to_free_list+0x9c>)
10000c26:	4602      	mov	r2, r0
10000c28:	1b12      	subs	r2, r2, r4
10000c2a:	4152      	adcs	r2, r2
10000c2c:	4353      	muls	r3, r2
10000c2e:	0d1b      	lsrs	r3, r3, #20
10000c30:	45e0      	cmp	r8, ip
10000c32:	b259      	sxtb	r1, r3
10000c34:	d014      	beq.n	10000c60 <irq_add_tail_to_free_list+0x74>
10000c36:	4622      	mov	r2, r4
10000c38:	2300      	movs	r3, #0
10000c3a:	f992 c006 	ldrsb.w	ip, [r2, #6]
10000c3e:	320c      	adds	r2, #12
10000c40:	458c      	cmp	ip, r1
10000c42:	d012      	beq.n	10000c6a <irq_add_tail_to_free_list+0x7e>
10000c44:	3301      	adds	r3, #1
10000c46:	2b04      	cmp	r3, #4
10000c48:	d1f7      	bne.n	10000c3a <irq_add_tail_to_free_list+0x4e>
10000c4a:	4b10      	ldr	r3, [pc, #64]	; (10000c8c <irq_add_tail_to_free_list+0xa0>)
10000c4c:	2200      	movs	r2, #0
10000c4e:	781c      	ldrb	r4, [r3, #0]
10000c50:	7019      	strb	r1, [r3, #0]
10000c52:	7184      	strb	r4, [r0, #6]
10000c54:	e8c5 2f8f 	stlb	r2, [r5]
10000c58:	f38e 8810 	msr	PRIMASK, lr
10000c5c:	e8bd 81f0 	ldmia.w	sp!, {r4, r5, r6, r7, r8, pc}
10000c60:	68bb      	ldr	r3, [r7, #8]
10000c62:	4a0b      	ldr	r2, [pc, #44]	; (10000c90 <irq_add_tail_to_free_list+0xa4>)
10000c64:	f843 2026 	str.w	r2, [r3, r6, lsl #2]
10000c68:	e7ef      	b.n	10000c4a <irq_add_tail_to_free_list+0x5e>
10000c6a:	22ff      	movs	r2, #255	; 0xff
10000c6c:	eb03 0343 	add.w	r3, r3, r3, lsl #1
10000c70:	eb04 0383 	add.w	r3, r4, r3, lsl #2
10000c74:	719a      	strb	r2, [r3, #6]
10000c76:	f64b 5201 	movw	r2, #48385	; 0xbd01
10000c7a:	809a      	strh	r2, [r3, #4]
10000c7c:	e7e5      	b.n	10000c4a <irq_add_tail_to_free_list+0x5e>
10000c7e:	bf00      	nop
10000c80:	20000f49 	.word	0x20000f49
10000c84:	e000ed00 	.word	0xe000ed00
10000c88:	20000a0c 	.word	0x20000a0c
10000c8c:	20001854 	.word	0x20001854
10000c90:	1000011d 	.word	0x1000011d

10000c94 <user_irq_claim_unused>:
10000c94:	b510      	push	{r4, lr}
10000c96:	4c07      	ldr	r4, [pc, #28]	; (10000cb4 <user_irq_claim_unused+0x20>)
10000c98:	b082      	sub	sp, #8
10000c9a:	4601      	mov	r1, r0
10000c9c:	2305      	movs	r3, #5
10000c9e:	2200      	movs	r2, #0
10000ca0:	9400      	str	r4, [sp, #0]
10000ca2:	4805      	ldr	r0, [pc, #20]	; (10000cb8 <user_irq_claim_unused+0x24>)
10000ca4:	f7ff fd54 	bl	10000750 <hw_claim_unused_from_range>
10000ca8:	2800      	cmp	r0, #0
10000caa:	bfa8      	it	ge
10000cac:	f1c0 0033 	rsbge	r0, r0, #51	; 0x33
10000cb0:	b002      	add	sp, #8
10000cb2:	bd10      	pop	{r4, pc}
10000cb4:	10004500 	.word	0x10004500
10000cb8:	20001858 	.word	0x20001858

10000cbc <lock_init>:
10000cbc:	4b01      	ldr	r3, [pc, #4]	; (10000cc4 <lock_init+0x8>)
10000cbe:	4419      	add	r1, r3
10000cc0:	6001      	str	r1, [r0, #0]
10000cc2:	4770      	bx	lr
10000cc4:	20000f40 	.word	0x20000f40

10000cc8 <runtime_init_mutex>:
10000cc8:	b5f8      	push	{r3, r4, r5, r6, r7, lr}
10000cca:	4d12      	ldr	r5, [pc, #72]	; (10000d14 <runtime_init_mutex+0x4c>)
10000ccc:	4e12      	ldr	r6, [pc, #72]	; (10000d18 <runtime_init_mutex+0x50>)
10000cce:	42b5      	cmp	r5, r6
10000cd0:	d21e      	bcs.n	10000d10 <runtime_init_mutex+0x48>
10000cd2:	27ff      	movs	r7, #255	; 0xff
10000cd4:	462c      	mov	r4, r5
10000cd6:	e00c      	b.n	10000cf2 <runtime_init_mutex+0x2a>
10000cd8:	f7ff fd88 	bl	100007ec <next_striped_spin_lock_num>
10000cdc:	4601      	mov	r1, r0
10000cde:	4628      	mov	r0, r5
10000ce0:	f7ff ffec 	bl	10000cbc <lock_init>
10000ce4:	80a7      	strh	r7, [r4, #4]
10000ce6:	f3bf 8f5f 	dmb	sy
10000cea:	3408      	adds	r4, #8
10000cec:	42b4      	cmp	r4, r6
10000cee:	d20f      	bcs.n	10000d10 <runtime_init_mutex+0x48>
10000cf0:	4625      	mov	r5, r4
10000cf2:	6823      	ldr	r3, [r4, #0]
10000cf4:	2b00      	cmp	r3, #0
10000cf6:	d1ef      	bne.n	10000cd8 <runtime_init_mutex+0x10>
10000cf8:	f7ff fd78 	bl	100007ec <next_striped_spin_lock_num>
10000cfc:	4601      	mov	r1, r0
10000cfe:	4628      	mov	r0, r5
10000d00:	f7ff ffdc 	bl	10000cbc <lock_init>
10000d04:	7127      	strb	r7, [r4, #4]
10000d06:	f3bf 8f5f 	dmb	sy
10000d0a:	3408      	adds	r4, #8
10000d0c:	42b4      	cmp	r4, r6
10000d0e:	d3ef      	bcc.n	10000cf0 <runtime_init_mutex+0x28>
10000d10:	bdf8      	pop	{r3, r4, r5, r6, r7, pc}
10000d12:	bf00      	nop
10000d14:	20000aa4 	.word	0x20000aa4
10000d18:	20000ab4 	.word	0x20000ab4

10000d1c <mutex_init>:
10000d1c:	b510      	push	{r4, lr}
10000d1e:	4604      	mov	r4, r0
10000d20:	f7ff fd64 	bl	100007ec <next_striped_spin_lock_num>
10000d24:	4601      	mov	r1, r0
10000d26:	4620      	mov	r0, r4
10000d28:	f7ff ffc8 	bl	10000cbc <lock_init>
10000d2c:	23ff      	movs	r3, #255	; 0xff
10000d2e:	7123      	strb	r3, [r4, #4]
10000d30:	f3bf 8f5f 	dmb	sy
10000d34:	bd10      	pop	{r4, pc}
10000d36:	bf00      	nop

10000d38 <critical_section_init>:
10000d38:	b510      	push	{r4, lr}
10000d3a:	4604      	mov	r4, r0
10000d3c:	2001      	movs	r0, #1
10000d3e:	f7ff fd61 	bl	10000804 <spin_lock_claim_unused>
10000d42:	4b03      	ldr	r3, [pc, #12]	; (10000d50 <critical_section_init+0x18>)
10000d44:	4418      	add	r0, r3
10000d46:	6020      	str	r0, [r4, #0]
10000d48:	f3bf 8f5f 	dmb	sy
10000d4c:	bd10      	pop	{r4, pc}
10000d4e:	bf00      	nop
10000d50:	20000f40 	.word	0x20000f40

10000d54 <critical_section_init_with_lock_num>:
10000d54:	4b02      	ldr	r3, [pc, #8]	; (10000d60 <critical_section_init_with_lock_num+0xc>)
10000d56:	4419      	add	r1, r3
10000d58:	6001      	str	r1, [r0, #0]
10000d5a:	f3bf 8f5f 	dmb	sy
10000d5e:	4770      	bx	lr
10000d60:	20000f40 	.word	0x20000f40

10000d64 <sleep_until_callback>:
10000d64:	4b0d      	ldr	r3, [pc, #52]	; (10000d9c <sleep_until_callback+0x38>)
10000d66:	681a      	ldr	r2, [r3, #0]
10000d68:	f3ef 8110 	mrs	r1, PRIMASK
10000d6c:	b672      	cpsid	i
10000d6e:	e8d2 cfcf 	ldaexb	ip, [r2]
10000d72:	2001      	movs	r0, #1
10000d74:	f1bc 0f00 	cmp.w	ip, #0
10000d78:	d1f9      	bne.n	10000d6e <sleep_until_callback+0xa>
10000d7a:	e8c2 0f4c 	strexb	ip, r0, [r2]
10000d7e:	f1bc 0f00 	cmp.w	ip, #0
10000d82:	d1f4      	bne.n	10000d6e <sleep_until_callback+0xa>
10000d84:	f3bf 8f5f 	dmb	sy
10000d88:	2200      	movs	r2, #0
10000d8a:	681b      	ldr	r3, [r3, #0]
10000d8c:	e8c3 2f8f 	stlb	r2, [r3]
10000d90:	f381 8810 	msr	PRIMASK, r1
10000d94:	bf40      	sev
10000d96:	2000      	movs	r0, #0
10000d98:	2100      	movs	r1, #0
10000d9a:	4770      	bx	lr
10000d9c:	20001834 	.word	0x20001834

10000da0 <alarm_pool_irq_handler>:
10000da0:	e92d 4ff0 	stmdb	sp!, {r4, r5, r6, r7, r8, r9, sl, fp, lr}
10000da4:	ed2d 8b02 	vpush	{d8}
10000da8:	b085      	sub	sp, #20
10000daa:	f3ef 8305 	mrs	r3, IPSR
10000dae:	b2db      	uxtb	r3, r3
10000db0:	3b10      	subs	r3, #16
10000db2:	089a      	lsrs	r2, r3, #2
10000db4:	bf18      	it	ne
10000db6:	2201      	movne	r2, #1
10000db8:	f04f 0101 	mov.w	r1, #1
10000dbc:	f003 0003 	and.w	r0, r3, #3
10000dc0:	4bb1      	ldr	r3, [pc, #708]	; (10001088 <alarm_pool_irq_handler+0x2e8>)
10000dc2:	eb00 0282 	add.w	r2, r0, r2, lsl #2
10000dc6:	bf0c      	ite	eq
10000dc8:	4fb0      	ldreq	r7, [pc, #704]	; (1000108c <alarm_pool_irq_handler+0x2ec>)
10000dca:	4fb1      	ldrne	r7, [pc, #708]	; (10001090 <alarm_pool_irq_handler+0x2f0>)
10000dcc:	f853 6022 	ldr.w	r6, [r3, r2, lsl #2]
10000dd0:	fa01 f200 	lsl.w	r2, r1, r0
10000dd4:	f507 5341 	add.w	r3, r7, #12352	; 0x3040
10000dd8:	ed9f 8ba9 	vldr	d8, [pc, #676]	; 10001080 <alarm_pool_irq_handler+0x2e0>
10000ddc:	46b0      	mov	r8, r6
10000dde:	9001      	str	r0, [sp, #4]
10000de0:	9200      	str	r2, [sp, #0]
10000de2:	605a      	str	r2, [r3, #4]
10000de4:	e031      	b.n	10000e4a <alarm_pool_irq_handler+0xaa>
10000de6:	f8b8 3004 	ldrh.w	r3, [r8, #4]
10000dea:	041b      	lsls	r3, r3, #16
10000dec:	f140 808e 	bpl.w	10000f0c <alarm_pool_irq_handler+0x16c>
10000df0:	f898 3006 	ldrb.w	r3, [r8, #6]
10000df4:	2b00      	cmp	r3, #0
10000df6:	f040 80db 	bne.w	10000fb0 <alarm_pool_irq_handler+0x210>
10000dfa:	f9b8 2008 	ldrsh.w	r2, [r8, #8]
10000dfe:	2a00      	cmp	r2, #0
10000e00:	f2c0 8121 	blt.w	10001046 <alarm_pool_irq_handler+0x2a6>
10000e04:	f8d8 3014 	ldr.w	r3, [r8, #20]
10000e08:	eb02 0242 	add.w	r2, r2, r2, lsl #1
10000e0c:	eb03 02c2 	add.w	r2, r3, r2, lsl #3
10000e10:	e9d2 4502 	ldrd	r4, r5, [r2, #8]
10000e14:	f1b5 3fff 	cmp.w	r5, #4294967295	; 0xffffffff
10000e18:	bf08      	it	eq
10000e1a:	f1b4 3fff 	cmpeq.w	r4, #4294967295	; 0xffffffff
10000e1e:	d009      	beq.n	10000e34 <alarm_pool_irq_handler+0x94>
10000e20:	9b01      	ldr	r3, [sp, #4]
10000e22:	eb07 0183 	add.w	r1, r7, r3, lsl #2
10000e26:	6abb      	ldr	r3, [r7, #40]	; 0x28
10000e28:	690a      	ldr	r2, [r1, #16]
10000e2a:	1ad2      	subs	r2, r2, r3
10000e2c:	1ae3      	subs	r3, r4, r3
10000e2e:	4293      	cmp	r3, r2
10000e30:	bf38      	it	cc
10000e32:	610c      	strcc	r4, [r1, #16]
10000e34:	4638      	mov	r0, r7
10000e36:	f000 fb27 	bl	10001488 <timer_time_us_64>
10000e3a:	1a20      	subs	r0, r4, r0
10000e3c:	eb65 0501 	sbc.w	r5, r5, r1
10000e40:	2801      	cmp	r0, #1
10000e42:	f175 0300 	sbcs.w	r3, r5, #0
10000e46:	f280 80fe 	bge.w	10001046 <alarm_pool_irq_handler+0x2a6>
10000e4a:	f9b8 4008 	ldrsh.w	r4, [r8, #8]
10000e4e:	9b00      	ldr	r3, [sp, #0]
10000e50:	2c00      	cmp	r4, #0
10000e52:	63fb      	str	r3, [r7, #60]	; 0x3c
10000e54:	dbc7      	blt.n	10000de6 <alarm_pool_irq_handler+0x46>
10000e56:	f8d8 a014 	ldr.w	sl, [r8, #20]
10000e5a:	eb04 0b44 	add.w	fp, r4, r4, lsl #1
10000e5e:	4638      	mov	r0, r7
10000e60:	eb0a 05cb 	add.w	r5, sl, fp, lsl #3
10000e64:	e9d5 9602 	ldrd	r9, r6, [r5, #8]
10000e68:	f000 fb0e 	bl	10001488 <timer_time_us_64>
10000e6c:	4548      	cmp	r0, r9
10000e6e:	eb61 0106 	sbc.w	r1, r1, r6
10000e72:	2900      	cmp	r1, #0
10000e74:	dbb7      	blt.n	10000de6 <alarm_pool_irq_handler+0x46>
10000e76:	2e00      	cmp	r6, #0
10000e78:	f2c0 80c3 	blt.w	10001002 <alarm_pool_irq_handler+0x262>
10000e7c:	692b      	ldr	r3, [r5, #16]
10000e7e:	4a85      	ldr	r2, [pc, #532]	; (10001094 <alarm_pool_irq_handler+0x2f4>)
10000e80:	4293      	cmp	r3, r2
10000e82:	f000 80f1 	beq.w	10001068 <alarm_pool_irq_handler+0x2c8>
10000e86:	886a      	ldrh	r2, [r5, #2]
10000e88:	f9b8 0008 	ldrsh.w	r0, [r8, #8]
10000e8c:	b292      	uxth	r2, r2
10000e8e:	ea42 4000 	orr.w	r0, r2, r0, lsl #16
10000e92:	6969      	ldr	r1, [r5, #20]
10000e94:	4798      	blx	r3
10000e96:	4602      	mov	r2, r0
10000e98:	460b      	mov	r3, r1
10000e9a:	ea52 0103 	orrs.w	r1, r2, r3
10000e9e:	f000 80b0 	beq.w	10001002 <alarm_pool_irq_handler+0x262>
10000ea2:	2b00      	cmp	r3, #0
10000ea4:	f280 80d5 	bge.w	10001052 <alarm_pool_irq_handler+0x2b2>
10000ea8:	ebb9 0202 	subs.w	r2, r9, r2
10000eac:	eb66 0303 	sbc.w	r3, r6, r3
10000eb0:	e9c5 2302 	strd	r2, r3, [r5, #8]
10000eb4:	f93a 503b 	ldrsh.w	r5, [sl, fp, lsl #3]
10000eb8:	2d00      	cmp	r5, #0
10000eba:	db94      	blt.n	10000de6 <alarm_pool_irq_handler+0x46>
10000ebc:	f8d8 c014 	ldr.w	ip, [r8, #20]
10000ec0:	eb05 0145 	add.w	r1, r5, r5, lsl #1
10000ec4:	eb0c 01c1 	add.w	r1, ip, r1, lsl #3
10000ec8:	6888      	ldr	r0, [r1, #8]
10000eca:	1a10      	subs	r0, r2, r0
10000ecc:	68c8      	ldr	r0, [r1, #12]
10000ece:	eb63 0000 	sbc.w	r0, r3, r0
10000ed2:	2800      	cmp	r0, #0
10000ed4:	db87      	blt.n	10000de6 <alarm_pool_irq_handler+0x46>
10000ed6:	f8a8 5008 	strh.w	r5, [r8, #8]
10000eda:	e007      	b.n	10000eec <alarm_pool_irq_handler+0x14c>
10000edc:	6885      	ldr	r5, [r0, #8]
10000ede:	1b55      	subs	r5, r2, r5
10000ee0:	68c5      	ldr	r5, [r0, #12]
10000ee2:	eb63 0505 	sbc.w	r5, r3, r5
10000ee6:	2d00      	cmp	r5, #0
10000ee8:	db08      	blt.n	10000efc <alarm_pool_irq_handler+0x15c>
10000eea:	4601      	mov	r1, r0
10000eec:	f9b1 6000 	ldrsh.w	r6, [r1]
10000ef0:	eb06 0046 	add.w	r0, r6, r6, lsl #1
10000ef4:	2e00      	cmp	r6, #0
10000ef6:	eb0c 00c0 	add.w	r0, ip, r0, lsl #3
10000efa:	daef      	bge.n	10000edc <alarm_pool_irq_handler+0x13c>
10000efc:	f82a 603b 	strh.w	r6, [sl, fp, lsl #3]
10000f00:	800c      	strh	r4, [r1, #0]
10000f02:	f8b8 3004 	ldrh.w	r3, [r8, #4]
10000f06:	041b      	lsls	r3, r3, #16
10000f08:	f53f af72 	bmi.w	10000df0 <alarm_pool_irq_handler+0x50>
10000f0c:	f8d8 3010 	ldr.w	r3, [r8, #16]
10000f10:	f3ef 8210 	mrs	r2, PRIMASK
10000f14:	b672      	cpsid	i
10000f16:	e8d3 0fcf 	ldaexb	r0, [r3]
10000f1a:	2101      	movs	r1, #1
10000f1c:	2800      	cmp	r0, #0
10000f1e:	d1fa      	bne.n	10000f16 <alarm_pool_irq_handler+0x176>
10000f20:	e8c3 1f40 	strexb	r0, r1, [r3]
10000f24:	2800      	cmp	r0, #0
10000f26:	d1f6      	bne.n	10000f16 <alarm_pool_irq_handler+0x176>
10000f28:	f3bf 8f5f 	dmb	sy
10000f2c:	f64f 70ff 	movw	r0, #65535	; 0xffff
10000f30:	f8b8 9004 	ldrh.w	r9, [r8, #4]
10000f34:	2300      	movs	r3, #0
10000f36:	f8d8 1010 	ldr.w	r1, [r8, #16]
10000f3a:	fa0f f989 	sxth.w	r9, r9
10000f3e:	f8a8 0004 	strh.w	r0, [r8, #4]
10000f42:	e8c1 3f8f 	stlb	r3, [r1]
10000f46:	f382 8810 	msr	PRIMASK, r2
10000f4a:	4599      	cmp	r9, r3
10000f4c:	f6ff af50 	blt.w	10000df0 <alarm_pool_irq_handler+0x50>
10000f50:	46ba      	mov	sl, r7
10000f52:	f8d8 5014 	ldr.w	r5, [r8, #20]
10000f56:	f108 0b08 	add.w	fp, r8, #8
10000f5a:	eb09 0e49 	add.w	lr, r9, r9, lsl #1
10000f5e:	eb05 03ce 	add.w	r3, r5, lr, lsl #3
10000f62:	e9d3 6702 	ldrd	r6, r7, [r3, #8]
10000f66:	f9b8 3008 	ldrsh.w	r3, [r8, #8]
10000f6a:	46dc      	mov	ip, fp
10000f6c:	2b00      	cmp	r3, #0
10000f6e:	da05      	bge.n	10000f7c <alarm_pool_irq_handler+0x1dc>
10000f70:	e00f      	b.n	10000f92 <alarm_pool_irq_handler+0x1f2>
10000f72:	f935 3034 	ldrsh.w	r3, [r5, r4, lsl #3]
10000f76:	4684      	mov	ip, r0
10000f78:	2b00      	cmp	r3, #0
10000f7a:	db0a      	blt.n	10000f92 <alarm_pool_irq_handler+0x1f2>
10000f7c:	eb03 0443 	add.w	r4, r3, r3, lsl #1
10000f80:	eb05 00c4 	add.w	r0, r5, r4, lsl #3
10000f84:	e9d0 1202 	ldrd	r1, r2, [r0, #8]
10000f88:	1a71      	subs	r1, r6, r1
10000f8a:	eb67 0202 	sbc.w	r2, r7, r2
10000f8e:	2a00      	cmp	r2, #0
10000f90:	daef      	bge.n	10000f72 <alarm_pool_irq_handler+0x1d2>
10000f92:	f8ac 9000 	strh.w	r9, [ip]
10000f96:	f935 903e 	ldrsh.w	r9, [r5, lr, lsl #3]
10000f9a:	f825 303e 	strh.w	r3, [r5, lr, lsl #3]
10000f9e:	f1b9 0f00 	cmp.w	r9, #0
10000fa2:	dada      	bge.n	10000f5a <alarm_pool_irq_handler+0x1ba>
10000fa4:	f898 3006 	ldrb.w	r3, [r8, #6]
10000fa8:	4657      	mov	r7, sl
10000faa:	2b00      	cmp	r3, #0
10000fac:	f43f af25 	beq.w	10000dfa <alarm_pool_irq_handler+0x5a>
10000fb0:	2300      	movs	r3, #0
10000fb2:	f888 3006 	strb.w	r3, [r8, #6]
10000fb6:	f9b8 3008 	ldrsh.w	r3, [r8, #8]
10000fba:	f108 0c08 	add.w	ip, r8, #8
10000fbe:	1c5e      	adds	r6, r3, #1
10000fc0:	d041      	beq.n	10001046 <alarm_pool_irq_handler+0x2a6>
10000fc2:	461a      	mov	r2, r3
10000fc4:	f8d8 4014 	ldr.w	r4, [r8, #20]
10000fc8:	e003      	b.n	10000fd2 <alarm_pool_irq_handler+0x232>
10000fca:	4684      	mov	ip, r0
10000fcc:	1c59      	adds	r1, r3, #1
10000fce:	f43f af16 	beq.w	10000dfe <alarm_pool_irq_handler+0x5e>
10000fd2:	eb03 0143 	add.w	r1, r3, r3, lsl #1
10000fd6:	eb04 00c1 	add.w	r0, r4, r1, lsl #3
10000fda:	8845      	ldrh	r5, [r0, #2]
10000fdc:	461e      	mov	r6, r3
10000fde:	042d      	lsls	r5, r5, #16
10000fe0:	f934 3031 	ldrsh.w	r3, [r4, r1, lsl #3]
10000fe4:	d5f1      	bpl.n	10000fca <alarm_pool_irq_handler+0x22a>
10000fe6:	4296      	cmp	r6, r2
10000fe8:	ed80 8b02 	vstr	d8, [r0, #8]
10000fec:	d0ee      	beq.n	10000fcc <alarm_pool_irq_handler+0x22c>
10000fee:	f8ac 3000 	strh.w	r3, [ip]
10000ff2:	f8b8 2008 	ldrh.w	r2, [r8, #8]
10000ff6:	f824 2031 	strh.w	r2, [r4, r1, lsl #3]
10000ffa:	4632      	mov	r2, r6
10000ffc:	f8a8 6008 	strh.w	r6, [r8, #8]
10001000:	e7e4      	b.n	10000fcc <alarm_pool_irq_handler+0x22c>
10001002:	f83a 303b 	ldrh.w	r3, [sl, fp, lsl #3]
10001006:	f8a8 3008 	strh.w	r3, [r8, #8]
1000100a:	f8d8 3010 	ldr.w	r3, [r8, #16]
1000100e:	f3ef 8210 	mrs	r2, PRIMASK
10001012:	b672      	cpsid	i
10001014:	e8d3 0fcf 	ldaexb	r0, [r3]
10001018:	2101      	movs	r1, #1
1000101a:	2800      	cmp	r0, #0
1000101c:	d1fa      	bne.n	10001014 <alarm_pool_irq_handler+0x274>
1000101e:	e8c3 1f40 	strexb	r0, r1, [r3]
10001022:	2800      	cmp	r0, #0
10001024:	d1f6      	bne.n	10001014 <alarm_pool_irq_handler+0x274>
10001026:	f3bf 8f5f 	dmb	sy
1000102a:	f8b8 3002 	ldrh.w	r3, [r8, #2]
1000102e:	f8d8 1010 	ldr.w	r1, [r8, #16]
10001032:	f82a 303b 	strh.w	r3, [sl, fp, lsl #3]
10001036:	2300      	movs	r3, #0
10001038:	f8a8 4002 	strh.w	r4, [r8, #2]
1000103c:	e8c1 3f8f 	stlb	r3, [r1]
10001040:	f382 8810 	msr	PRIMASK, r2
10001044:	e6cf      	b.n	10000de6 <alarm_pool_irq_handler+0x46>
10001046:	bf40      	sev
10001048:	b005      	add	sp, #20
1000104a:	ecbd 8b02 	vpop	{d8}
1000104e:	e8bd 8ff0 	ldmia.w	sp!, {r4, r5, r6, r7, r8, r9, sl, fp, pc}
10001052:	4638      	mov	r0, r7
10001054:	e9cd 2302 	strd	r2, r3, [sp, #8]
10001058:	f000 fa16 	bl	10001488 <timer_time_us_64>
1000105c:	9a02      	ldr	r2, [sp, #8]
1000105e:	9b03      	ldr	r3, [sp, #12]
10001060:	1882      	adds	r2, r0, r2
10001062:	eb43 0301 	adc.w	r3, r3, r1
10001066:	e723      	b.n	10000eb0 <alarm_pool_irq_handler+0x110>
10001068:	6969      	ldr	r1, [r5, #20]
1000106a:	4608      	mov	r0, r1
1000106c:	690b      	ldr	r3, [r1, #16]
1000106e:	9102      	str	r1, [sp, #8]
10001070:	4798      	blx	r3
10001072:	2800      	cmp	r0, #0
10001074:	d0c5      	beq.n	10001002 <alarm_pool_irq_handler+0x262>
10001076:	9902      	ldr	r1, [sp, #8]
10001078:	e9d1 2300 	ldrd	r2, r3, [r1]
1000107c:	e70d      	b.n	10000e9a <alarm_pool_irq_handler+0xfa>
1000107e:	bf00      	nop
10001080:	ffffffff 	.word	0xffffffff
10001084:	ffffffff 	.word	0xffffffff
10001088:	2000180c 	.word	0x2000180c
1000108c:	400b0000 	.word	0x400b0000
10001090:	400b8000 	.word	0x400b8000
10001094:	10000da1 	.word	0x10000da1

10001098 <runtime_init_default_alarm_pool>:
10001098:	b570      	push	{r4, r5, r6, lr}
1000109a:	4d1f      	ldr	r5, [pc, #124]	; (10001118 <runtime_init_default_alarm_pool+0x80>)
1000109c:	692c      	ldr	r4, [r5, #16]
1000109e:	b12c      	cbz	r4, 100010ac <runtime_init_default_alarm_pool+0x14>
100010a0:	e8bd 4070 	ldmia.w	sp!, {r4, r5, r6, lr}
100010a4:	210a      	movs	r1, #10
100010a6:	481d      	ldr	r0, [pc, #116]	; (1000111c <runtime_init_default_alarm_pool+0x84>)
100010a8:	f7ff be08 	b.w	10000cbc <lock_init>
100010ac:	4e1c      	ldr	r6, [pc, #112]	; (10001120 <runtime_init_default_alarm_pool+0x88>)
100010ae:	2103      	movs	r1, #3
100010b0:	4630      	mov	r0, r6
100010b2:	f000 f9d7 	bl	10001464 <timer_hardware_alarm_claim>
100010b6:	60ee      	str	r6, [r5, #12]
100010b8:	f7ff fb98 	bl	100007ec <next_striped_spin_lock_num>
100010bc:	4919      	ldr	r1, [pc, #100]	; (10001124 <runtime_init_default_alarm_pool+0x8c>)
100010be:	2603      	movs	r6, #3
100010c0:	4408      	add	r0, r1
100010c2:	6128      	str	r0, [r5, #16]
100010c4:	f04f 4050 	mov.w	r0, #3489660928	; 0xd0000000
100010c8:	f64f 72ff 	movw	r2, #65535	; 0xffff
100010cc:	4623      	mov	r3, r4
100010ce:	240f      	movs	r4, #15
100010d0:	4915      	ldr	r1, [pc, #84]	; (10001128 <runtime_init_default_alarm_pool+0x90>)
100010d2:	702e      	strb	r6, [r5, #0]
100010d4:	60a9      	str	r1, [r5, #8]
100010d6:	6800      	ldr	r0, [r0, #0]
100010d8:	6969      	ldr	r1, [r5, #20]
100010da:	80aa      	strh	r2, [r5, #4]
100010dc:	806c      	strh	r4, [r5, #2]
100010de:	7068      	strb	r0, [r5, #1]
100010e0:	f821 2013 	strh.w	r2, [r1, r3, lsl #1]
100010e4:	330c      	adds	r3, #12
100010e6:	3201      	adds	r2, #1
100010e8:	2bc0      	cmp	r3, #192	; 0xc0
100010ea:	b292      	uxth	r2, r2
100010ec:	d1f8      	bne.n	100010e0 <runtime_init_default_alarm_pool+0x48>
100010ee:	2408      	movs	r4, #8
100010f0:	4b0b      	ldr	r3, [pc, #44]	; (10001120 <runtime_init_default_alarm_pool+0x88>)
100010f2:	4a0e      	ldr	r2, [pc, #56]	; (1000112c <runtime_init_default_alarm_pool+0x94>)
100010f4:	2003      	movs	r0, #3
100010f6:	60d5      	str	r5, [r2, #12]
100010f8:	490d      	ldr	r1, [pc, #52]	; (10001130 <runtime_init_default_alarm_pool+0x98>)
100010fa:	621c      	str	r4, [r3, #32]
100010fc:	f7ff fc52 	bl	100009a4 <irq_set_exclusive_handler>
10001100:	2101      	movs	r1, #1
10001102:	2003      	movs	r0, #3
10001104:	f7ff fc08 	bl	10000918 <irq_set_enabled>
10001108:	4b0a      	ldr	r3, [pc, #40]	; (10001134 <runtime_init_default_alarm_pool+0x9c>)
1000110a:	210a      	movs	r1, #10
1000110c:	601c      	str	r4, [r3, #0]
1000110e:	4803      	ldr	r0, [pc, #12]	; (1000111c <runtime_init_default_alarm_pool+0x84>)
10001110:	e8bd 4070 	ldmia.w	sp!, {r4, r5, r6, lr}
10001114:	f7ff bdd2 	b.w	10000cbc <lock_init>
10001118:	20000a54 	.word	0x20000a54
1000111c:	20001834 	.word	0x20001834
10001120:	400b0000 	.word	0x400b0000
10001124:	20000f40 	.word	0x20000f40
10001128:	0010ffff 	.word	0x0010ffff
1000112c:	2000180c 	.word	0x2000180c
10001130:	10000da1 	.word	0x10000da1
10001134:	400b2040 	.word	0x400b2040

10001138 <alarm_pool_get_default>:
10001138:	4800      	ldr	r0, [pc, #0]	; (1000113c <alarm_pool_get_default+0x4>)
1000113a:	4770      	bx	lr
1000113c:	20000a54 	.word	0x20000a54

10001140 <alarm_pool_add_alarm_at_force_in_context>:
10001140:	4601      	mov	r1, r0
10001142:	b5f0      	push	{r4, r5, r6, r7, lr}
10001144:	6900      	ldr	r0, [r0, #16]
10001146:	f3ef 8710 	mrs	r7, PRIMASK
1000114a:	b672      	cpsid	i
1000114c:	e8d0 5fcf 	ldaexb	r5, [r0]
10001150:	2401      	movs	r4, #1
10001152:	2d00      	cmp	r5, #0
10001154:	d1fa      	bne.n	1000114c <alarm_pool_add_alarm_at_force_in_context+0xc>
10001156:	e8c0 4f45 	strexb	r5, r4, [r0]
1000115a:	2d00      	cmp	r5, #0
1000115c:	d1f6      	bne.n	1000114c <alarm_pool_add_alarm_at_force_in_context+0xc>
1000115e:	f3bf 8f5f 	dmb	sy
10001162:	f9b1 e002 	ldrsh.w	lr, [r1, #2]
10001166:	694c      	ldr	r4, [r1, #20]
10001168:	eb0e 0c4e 	add.w	ip, lr, lr, lsl #1
1000116c:	ea4f 06cc 	mov.w	r6, ip, lsl #3
10001170:	f1be 0f00 	cmp.w	lr, #0
10001174:	bfa8      	it	ge
10001176:	5ba0      	ldrhge	r0, [r4, r6]
10001178:	f04f 0500 	mov.w	r5, #0
1000117c:	bfa8      	it	ge
1000117e:	8048      	strhge	r0, [r1, #2]
10001180:	eb04 0ccc 	add.w	ip, r4, ip, lsl #3
10001184:	6908      	ldr	r0, [r1, #16]
10001186:	e8c0 5f8f 	stlb	r5, [r0]
1000118a:	f387 8810 	msr	PRIMASK, r7
1000118e:	45ae      	cmp	lr, r5
10001190:	db35      	blt.n	100011fe <alarm_pool_add_alarm_at_force_in_context+0xbe>
10001192:	f8bc 0002 	ldrh.w	r0, [ip, #2]
10001196:	e9cc 2302 	strd	r2, r3, [ip, #8]
1000119a:	3001      	adds	r0, #1
1000119c:	f3c0 000e 	ubfx	r0, r0, #0, #15
100011a0:	2801      	cmp	r0, #1
100011a2:	bf38      	it	cc
100011a4:	2001      	movcc	r0, #1
100011a6:	9b05      	ldr	r3, [sp, #20]
100011a8:	f8ac 0002 	strh.w	r0, [ip, #2]
100011ac:	f8cc 3010 	str.w	r3, [ip, #16]
100011b0:	9b06      	ldr	r3, [sp, #24]
100011b2:	ea40 400e 	orr.w	r0, r0, lr, lsl #16
100011b6:	f8cc 3014 	str.w	r3, [ip, #20]
100011ba:	690b      	ldr	r3, [r1, #16]
100011bc:	f3ef 8210 	mrs	r2, PRIMASK
100011c0:	b672      	cpsid	i
100011c2:	e8d3 cfcf 	ldaexb	ip, [r3]
100011c6:	2701      	movs	r7, #1
100011c8:	f1bc 0f00 	cmp.w	ip, #0
100011cc:	d1f9      	bne.n	100011c2 <alarm_pool_add_alarm_at_force_in_context+0x82>
100011ce:	e8c3 7f4c 	strexb	ip, r7, [r3]
100011d2:	f1bc 0f00 	cmp.w	ip, #0
100011d6:	d1f4      	bne.n	100011c2 <alarm_pool_add_alarm_at_force_in_context+0x82>
100011d8:	f3bf 8f5f 	dmb	sy
100011dc:	888b      	ldrh	r3, [r1, #4]
100011de:	53a3      	strh	r3, [r4, r6]
100011e0:	f8a1 e004 	strh.w	lr, [r1, #4]
100011e4:	690b      	ldr	r3, [r1, #16]
100011e6:	e8c3 5f8f 	stlb	r5, [r3]
100011ea:	f382 8810 	msr	PRIMASK, r2
100011ee:	2201      	movs	r2, #1
100011f0:	68cb      	ldr	r3, [r1, #12]
100011f2:	7809      	ldrb	r1, [r1, #0]
100011f4:	f503 5301 	add.w	r3, r3, #8256	; 0x2040
100011f8:	408a      	lsls	r2, r1
100011fa:	605a      	str	r2, [r3, #4]
100011fc:	bdf0      	pop	{r4, r5, r6, r7, pc}
100011fe:	f04f 30ff 	mov.w	r0, #4294967295	; 0xffffffff
10001202:	bdf0      	pop	{r4, r5, r6, r7, pc}

10001204 <alarm_pool_add_alarm_at>:
10001204:	e92d 47f0 	stmdb	sp!, {r4, r5, r6, r7, r8, r9, sl, lr}
10001208:	f89d 9028 	ldrb.w	r9, [sp, #40]	; 0x28
1000120c:	4605      	mov	r5, r0
1000120e:	e9dd 6708 	ldrd	r6, r7, [sp, #32]
10001212:	4690      	mov	r8, r2
10001214:	461c      	mov	r4, r3
10001216:	f1b9 0f00 	cmp.w	r9, #0
1000121a:	d106      	bne.n	1000122a <alarm_pool_add_alarm_at+0x26>
1000121c:	f000 f93c 	bl	10001498 <time_us_64>
10001220:	4580      	cmp	r8, r0
10001222:	eb64 0101 	sbc.w	r1, r4, r1
10001226:	2900      	cmp	r1, #0
10001228:	db08      	blt.n	1000123c <alarm_pool_add_alarm_at+0x38>
1000122a:	4642      	mov	r2, r8
1000122c:	4623      	mov	r3, r4
1000122e:	4628      	mov	r0, r5
10001230:	e9cd 6708 	strd	r6, r7, [sp, #32]
10001234:	e8bd 47f0 	ldmia.w	sp!, {r4, r5, r6, r7, r8, r9, sl, lr}
10001238:	f7ff bf82 	b.w	10001140 <alarm_pool_add_alarm_at_force_in_context>
1000123c:	4648      	mov	r0, r9
1000123e:	e8bd 87f0 	ldmia.w	sp!, {r4, r5, r6, r7, r8, r9, sl, pc}
10001242:	bf00      	nop

10001244 <alarm_pool_cancel_alarm>:
10001244:	8942      	ldrh	r2, [r0, #10]
10001246:	ebb2 4f21 	cmp.w	r2, r1, asr #16
1000124a:	dd38      	ble.n	100012be <alarm_pool_cancel_alarm+0x7a>
1000124c:	6942      	ldr	r2, [r0, #20]
1000124e:	140b      	asrs	r3, r1, #16
10001250:	eb03 0343 	add.w	r3, r3, r3, lsl #1
10001254:	b510      	push	{r4, lr}
10001256:	eb02 03c3 	add.w	r3, r2, r3, lsl #3
1000125a:	6904      	ldr	r4, [r0, #16]
1000125c:	f3ef 8c10 	mrs	ip, PRIMASK
10001260:	b672      	cpsid	i
10001262:	e8d4 efcf 	ldaexb	lr, [r4]
10001266:	2201      	movs	r2, #1
10001268:	f1be 0f00 	cmp.w	lr, #0
1000126c:	d1f9      	bne.n	10001262 <alarm_pool_cancel_alarm+0x1e>
1000126e:	e8c4 2f4e 	strexb	lr, r2, [r4]
10001272:	f1be 0f00 	cmp.w	lr, #0
10001276:	d1f4      	bne.n	10001262 <alarm_pool_cancel_alarm+0x1e>
10001278:	f3bf 8f5f 	dmb	sy
1000127c:	885a      	ldrh	r2, [r3, #2]
1000127e:	b289      	uxth	r1, r1
10001280:	b292      	uxth	r2, r2
10001282:	428a      	cmp	r2, r1
10001284:	d007      	beq.n	10001296 <alarm_pool_cancel_alarm+0x52>
10001286:	2300      	movs	r3, #0
10001288:	6902      	ldr	r2, [r0, #16]
1000128a:	e8c2 3f8f 	stlb	r3, [r2]
1000128e:	f38c 8810 	msr	PRIMASK, ip
10001292:	4618      	mov	r0, r3
10001294:	bd10      	pop	{r4, pc}
10001296:	f442 4200 	orr.w	r2, r2, #32768	; 0x8000
1000129a:	805a      	strh	r2, [r3, #2]
1000129c:	2301      	movs	r3, #1
1000129e:	2200      	movs	r2, #0
100012a0:	6901      	ldr	r1, [r0, #16]
100012a2:	7183      	strb	r3, [r0, #6]
100012a4:	e8c1 2f8f 	stlb	r2, [r1]
100012a8:	f38c 8810 	msr	PRIMASK, ip
100012ac:	68c2      	ldr	r2, [r0, #12]
100012ae:	7801      	ldrb	r1, [r0, #0]
100012b0:	f502 5201 	add.w	r2, r2, #8256	; 0x2040
100012b4:	fa03 f101 	lsl.w	r1, r3, r1
100012b8:	4618      	mov	r0, r3
100012ba:	6051      	str	r1, [r2, #4]
100012bc:	bd10      	pop	{r4, pc}
100012be:	2000      	movs	r0, #0
100012c0:	4770      	bx	lr
100012c2:	bf00      	nop

100012c4 <alarm_pool_core_num>:
100012c4:	7840      	ldrb	r0, [r0, #1]
100012c6:	4770      	bx	lr

100012c8 <sleep_until>:
100012c8:	e92d 41f0 	stmdb	sp!, {r4, r5, r6, r7, r8, lr}
100012cc:	1f86      	subs	r6, r0, #6
100012ce:	f141 35ff 	adc.w	r5, r1, #4294967295	; 0xffffffff
100012d2:	42b0      	cmp	r0, r6
100012d4:	eb71 0305 	sbcs.w	r3, r1, r5
100012d8:	bf38      	it	cc
100012da:	2600      	movcc	r6, #0
100012dc:	b082      	sub	sp, #8
100012de:	bf38      	it	cc
100012e0:	4635      	movcc	r5, r6
100012e2:	4604      	mov	r4, r0
100012e4:	460f      	mov	r7, r1
100012e6:	f000 f8d7 	bl	10001498 <time_us_64>
100012ea:	1a30      	subs	r0, r6, r0
100012ec:	eb65 0101 	sbc.w	r1, r5, r1
100012f0:	2801      	cmp	r0, #1
100012f2:	f171 0300 	sbcs.w	r3, r1, #0
100012f6:	da06      	bge.n	10001306 <sleep_until+0x3e>
100012f8:	4620      	mov	r0, r4
100012fa:	4639      	mov	r1, r7
100012fc:	b002      	add	sp, #8
100012fe:	e8bd 41f0 	ldmia.w	sp!, {r4, r5, r6, r7, r8, lr}
10001302:	f000 b8f9 	b.w	100014f8 <busy_wait_until>
10001306:	f000 f8c7 	bl	10001498 <time_us_64>
1000130a:	4286      	cmp	r6, r0
1000130c:	eb65 0101 	sbc.w	r1, r5, r1
10001310:	2900      	cmp	r1, #0
10001312:	db0a      	blt.n	1000132a <sleep_until+0x62>
10001314:	2100      	movs	r1, #0
10001316:	4b17      	ldr	r3, [pc, #92]	; (10001374 <sleep_until+0xac>)
10001318:	4632      	mov	r2, r6
1000131a:	9300      	str	r3, [sp, #0]
1000131c:	4816      	ldr	r0, [pc, #88]	; (10001378 <sleep_until+0xb0>)
1000131e:	462b      	mov	r3, r5
10001320:	9101      	str	r1, [sp, #4]
10001322:	f7ff ff0d 	bl	10001140 <alarm_pool_add_alarm_at_force_in_context>
10001326:	2800      	cmp	r0, #0
10001328:	dbe6      	blt.n	100012f8 <sleep_until+0x30>
1000132a:	f04f 0c00 	mov.w	ip, #0
1000132e:	4813      	ldr	r0, [pc, #76]	; (1000137c <sleep_until+0xb4>)
10001330:	4a13      	ldr	r2, [pc, #76]	; (10001380 <sleep_until+0xb8>)
10001332:	6a43      	ldr	r3, [r0, #36]	; 0x24
10001334:	429d      	cmp	r5, r3
10001336:	d804      	bhi.n	10001342 <sleep_until+0x7a>
10001338:	6a81      	ldr	r1, [r0, #40]	; 0x28
1000133a:	42b1      	cmp	r1, r6
1000133c:	d2dc      	bcs.n	100012f8 <sleep_until+0x30>
1000133e:	429d      	cmp	r5, r3
10001340:	d1da      	bne.n	100012f8 <sleep_until+0x30>
10001342:	6813      	ldr	r3, [r2, #0]
10001344:	f3ef 8110 	mrs	r1, PRIMASK
10001348:	b672      	cpsid	i
1000134a:	e8d3 8fcf 	ldaexb	r8, [r3]
1000134e:	f05f 0e01 	movs.w	lr, #1
10001352:	f1b8 0f00 	cmp.w	r8, #0
10001356:	d1f8      	bne.n	1000134a <sleep_until+0x82>
10001358:	e8c3 ef48 	strexb	r8, lr, [r3]
1000135c:	f1b8 0f00 	cmp.w	r8, #0
10001360:	d1f3      	bne.n	1000134a <sleep_until+0x82>
10001362:	f3bf 8f5f 	dmb	sy
10001366:	6813      	ldr	r3, [r2, #0]
10001368:	e8c3 cf8f 	stlb	ip, [r3]
1000136c:	f381 8810 	msr	PRIMASK, r1
10001370:	bf20      	wfe
10001372:	e7de      	b.n	10001332 <sleep_until+0x6a>
10001374:	10000d65 	.word	0x10000d65
10001378:	20000a54 	.word	0x20000a54
1000137c:	400b0000 	.word	0x400b0000
10001380:	20001834 	.word	0x20001834

10001384 <sleep_ms>:
10001384:	b510      	push	{r4, lr}
10001386:	4604      	mov	r4, r0
10001388:	f000 f886 	bl	10001498 <time_us_64>
1000138c:	f44f 737a 	mov.w	r3, #1000	; 0x3e8
10001390:	fbe4 0103 	umlal	r0, r1, r4, r3
10001394:	e8bd 4010 	ldmia.w	sp!, {r4, lr}
10001398:	2900      	cmp	r1, #0
1000139a:	bfbc      	itt	lt
1000139c:	f04f 30ff 	movlt.w	r0, #4294967295	; 0xffffffff
100013a0:	f06f 4100 	mvnlt.w	r1, #2147483648	; 0x80000000
100013a4:	f7ff bf90 	b.w	100012c8 <sleep_until>

100013a8 <best_effort_wfe_or_timeout>:
100013a8:	b5f0      	push	{r4, r5, r6, r7, lr}
100013aa:	4607      	mov	r7, r0
100013ac:	460e      	mov	r6, r1
100013ae:	b083      	sub	sp, #12
100013b0:	f3ef 8405 	mrs	r4, IPSR
100013b4:	b2e4      	uxtb	r4, r4
100013b6:	2c00      	cmp	r4, #0
100013b8:	d13a      	bne.n	10001430 <best_effort_wfe_or_timeout+0x88>
100013ba:	4d27      	ldr	r5, [pc, #156]	; (10001458 <best_effort_wfe_or_timeout+0xb0>)
100013bc:	782a      	ldrb	r2, [r5, #0]
100013be:	68e9      	ldr	r1, [r5, #12]
100013c0:	3204      	adds	r2, #4
100013c2:	6a8b      	ldr	r3, [r1, #40]	; 0x28
100013c4:	f851 2022 	ldr.w	r2, [r1, r2, lsl #2]
100013c8:	1ad2      	subs	r2, r2, r3
100013ca:	1ac3      	subs	r3, r0, r3
100013cc:	4293      	cmp	r3, r2
100013ce:	d30c      	bcc.n	100013ea <best_effort_wfe_or_timeout+0x42>
100013d0:	bf20      	wfe
100013d2:	4a22      	ldr	r2, [pc, #136]	; (1000145c <best_effort_wfe_or_timeout+0xb4>)
100013d4:	6a50      	ldr	r0, [r2, #36]	; 0x24
100013d6:	4286      	cmp	r6, r0
100013d8:	d82e      	bhi.n	10001438 <best_effort_wfe_or_timeout+0x90>
100013da:	6a93      	ldr	r3, [r2, #40]	; 0x28
100013dc:	429f      	cmp	r7, r3
100013de:	d924      	bls.n	1000142a <best_effort_wfe_or_timeout+0x82>
100013e0:	1a30      	subs	r0, r6, r0
100013e2:	bf18      	it	ne
100013e4:	2001      	movne	r0, #1
100013e6:	b003      	add	sp, #12
100013e8:	bdf0      	pop	{r4, r5, r6, r7, pc}
100013ea:	f000 f855 	bl	10001498 <time_us_64>
100013ee:	4287      	cmp	r7, r0
100013f0:	eb66 0101 	sbc.w	r1, r6, r1
100013f4:	2900      	cmp	r1, #0
100013f6:	db11      	blt.n	1000141c <best_effort_wfe_or_timeout+0x74>
100013f8:	4b19      	ldr	r3, [pc, #100]	; (10001460 <best_effort_wfe_or_timeout+0xb8>)
100013fa:	4628      	mov	r0, r5
100013fc:	e9cd 3400 	strd	r3, r4, [sp]
10001400:	463a      	mov	r2, r7
10001402:	4633      	mov	r3, r6
10001404:	f7ff fe9c 	bl	10001140 <alarm_pool_add_alarm_at_force_in_context>
10001408:	1e01      	subs	r1, r0, #0
1000140a:	dd07      	ble.n	1000141c <best_effort_wfe_or_timeout+0x74>
1000140c:	4b13      	ldr	r3, [pc, #76]	; (1000145c <best_effort_wfe_or_timeout+0xb4>)
1000140e:	6a5a      	ldr	r2, [r3, #36]	; 0x24
10001410:	4296      	cmp	r6, r2
10001412:	d91b      	bls.n	1000144c <best_effort_wfe_or_timeout+0xa4>
10001414:	bf20      	wfe
10001416:	4810      	ldr	r0, [pc, #64]	; (10001458 <best_effort_wfe_or_timeout+0xb0>)
10001418:	f7ff ff14 	bl	10001244 <alarm_pool_cancel_alarm>
1000141c:	4b0f      	ldr	r3, [pc, #60]	; (1000145c <best_effort_wfe_or_timeout+0xb4>)
1000141e:	6a58      	ldr	r0, [r3, #36]	; 0x24
10001420:	4286      	cmp	r6, r0
10001422:	d809      	bhi.n	10001438 <best_effort_wfe_or_timeout+0x90>
10001424:	6a9b      	ldr	r3, [r3, #40]	; 0x28
10001426:	429f      	cmp	r7, r3
10001428:	d8da      	bhi.n	100013e0 <best_effort_wfe_or_timeout+0x38>
1000142a:	2001      	movs	r0, #1
1000142c:	b003      	add	sp, #12
1000142e:	bdf0      	pop	{r4, r5, r6, r7, pc}
10001430:	4b0a      	ldr	r3, [pc, #40]	; (1000145c <best_effort_wfe_or_timeout+0xb4>)
10001432:	6a58      	ldr	r0, [r3, #36]	; 0x24
10001434:	4288      	cmp	r0, r1
10001436:	d202      	bcs.n	1000143e <best_effort_wfe_or_timeout+0x96>
10001438:	2000      	movs	r0, #0
1000143a:	b003      	add	sp, #12
1000143c:	bdf0      	pop	{r4, r5, r6, r7, pc}
1000143e:	6a9b      	ldr	r3, [r3, #40]	; 0x28
10001440:	42bb      	cmp	r3, r7
10001442:	d2f2      	bcs.n	1000142a <best_effort_wfe_or_timeout+0x82>
10001444:	1a40      	subs	r0, r0, r1
10001446:	bf18      	it	ne
10001448:	2001      	movne	r0, #1
1000144a:	e7f6      	b.n	1000143a <best_effort_wfe_or_timeout+0x92>
1000144c:	6a9b      	ldr	r3, [r3, #40]	; 0x28
1000144e:	429f      	cmp	r7, r3
10001450:	d9e1      	bls.n	10001416 <best_effort_wfe_or_timeout+0x6e>
10001452:	4296      	cmp	r6, r2
10001454:	d1df      	bne.n	10001416 <best_effort_wfe_or_timeout+0x6e>
10001456:	e7dd      	b.n	10001414 <best_effort_wfe_or_timeout+0x6c>
10001458:	20000a54 	.word	0x20000a54
1000145c:	400b0000 	.word	0x400b0000
10001460:	10000d65 	.word	0x10000d65

10001464 <timer_hardware_alarm_claim>:
10001464:	b410      	push	{r4}
10001466:	4b05      	ldr	r3, [pc, #20]	; (1000147c <timer_hardware_alarm_claim+0x18>)
10001468:	4c05      	ldr	r4, [pc, #20]	; (10001480 <timer_hardware_alarm_claim+0x1c>)
1000146a:	4a06      	ldr	r2, [pc, #24]	; (10001484 <timer_hardware_alarm_claim+0x20>)
1000146c:	42a0      	cmp	r0, r4
1000146e:	bf14      	ite	ne
10001470:	4618      	movne	r0, r3
10001472:	1c58      	addeq	r0, r3, #1
10001474:	f85d 4b04 	ldr.w	r4, [sp], #4
10001478:	f7ff b93c 	b.w	100006f4 <hw_claim_or_assert>
1000147c:	20001398 	.word	0x20001398
10001480:	400b8000 	.word	0x400b8000
10001484:	1000451c 	.word	0x1000451c

10001488 <timer_time_us_64>:
10001488:	6a41      	ldr	r1, [r0, #36]	; 0x24
1000148a:	460b      	mov	r3, r1
1000148c:	6a82      	ldr	r2, [r0, #40]	; 0x28
1000148e:	6a41      	ldr	r1, [r0, #36]	; 0x24
10001490:	428b      	cmp	r3, r1
10001492:	d1fa      	bne.n	1000148a <timer_time_us_64+0x2>
10001494:	4610      	mov	r0, r2
10001496:	4770      	bx	lr

10001498 <time_us_64>:
10001498:	4b03      	ldr	r3, [pc, #12]	; (100014a8 <time_us_64+0x10>)
1000149a:	6a59      	ldr	r1, [r3, #36]	; 0x24
1000149c:	460a      	mov	r2, r1
1000149e:	6a98      	ldr	r0, [r3, #40]	; 0x28
100014a0:	6a59      	ldr	r1, [r3, #36]	; 0x24
100014a2:	4291      	cmp	r1, r2
100014a4:	d1fa      	bne.n	1000149c <time_us_64+0x4>
100014a6:	4770      	bx	lr
100014a8:	400b0000 	.word	0x400b0000

100014ac <busy_wait_us>:
100014ac:	b410      	push	{r4}
100014ae:	4a11      	ldr	r2, [pc, #68]	; (100014f4 <busy_wait_us+0x48>)
100014b0:	6a53      	ldr	r3, [r2, #36]	; 0x24
100014b2:	469c      	mov	ip, r3
100014b4:	6a94      	ldr	r4, [r2, #40]	; 0x28
100014b6:	6a53      	ldr	r3, [r2, #36]	; 0x24
100014b8:	4563      	cmp	r3, ip
100014ba:	d1fa      	bne.n	100014b2 <busy_wait_us+0x6>
100014bc:	1900      	adds	r0, r0, r4
100014be:	414b      	adcs	r3, r1
100014c0:	f04f 0200 	mov.w	r2, #0
100014c4:	bf28      	it	cs
100014c6:	2201      	movcs	r2, #1
100014c8:	b112      	cbz	r2, 100014d0 <busy_wait_us+0x24>
100014ca:	f04f 33ff 	mov.w	r3, #4294967295	; 0xffffffff
100014ce:	4618      	mov	r0, r3
100014d0:	4908      	ldr	r1, [pc, #32]	; (100014f4 <busy_wait_us+0x48>)
100014d2:	6a4a      	ldr	r2, [r1, #36]	; 0x24
100014d4:	429a      	cmp	r2, r3
100014d6:	d3fc      	bcc.n	100014d2 <busy_wait_us+0x26>
100014d8:	429a      	cmp	r2, r3
100014da:	d107      	bne.n	100014ec <busy_wait_us+0x40>
100014dc:	4a05      	ldr	r2, [pc, #20]	; (100014f4 <busy_wait_us+0x48>)
100014de:	e002      	b.n	100014e6 <busy_wait_us+0x3a>
100014e0:	6a51      	ldr	r1, [r2, #36]	; 0x24
100014e2:	4299      	cmp	r1, r3
100014e4:	d102      	bne.n	100014ec <busy_wait_us+0x40>
100014e6:	6a91      	ldr	r1, [r2, #40]	; 0x28
100014e8:	4281      	cmp	r1, r0
100014ea:	d3f9      	bcc.n	100014e0 <busy_wait_us+0x34>
100014ec:	f85d 4b04 	ldr.w	r4, [sp], #4
100014f0:	4770      	bx	lr
100014f2:	bf00      	nop
100014f4:	400b0000 	.word	0x400b0000

100014f8 <busy_wait_until>:
100014f8:	4a07      	ldr	r2, [pc, #28]	; (10001518 <busy_wait_until+0x20>)
100014fa:	6a53      	ldr	r3, [r2, #36]	; 0x24
100014fc:	4299      	cmp	r1, r3
100014fe:	d8fc      	bhi.n	100014fa <busy_wait_until+0x2>
10001500:	4299      	cmp	r1, r3
10001502:	d107      	bne.n	10001514 <busy_wait_until+0x1c>
10001504:	4b04      	ldr	r3, [pc, #16]	; (10001518 <busy_wait_until+0x20>)
10001506:	e002      	b.n	1000150e <busy_wait_until+0x16>
10001508:	6a5a      	ldr	r2, [r3, #36]	; 0x24
1000150a:	4291      	cmp	r1, r2
1000150c:	d102      	bne.n	10001514 <busy_wait_until+0x1c>
1000150e:	6a9a      	ldr	r2, [r3, #40]	; 0x28
10001510:	4282      	cmp	r2, r0
10001512:	d3f9      	bcc.n	10001508 <busy_wait_until+0x10>
10001514:	4770      	bx	lr
10001516:	bf00      	nop
10001518:	400b0000 	.word	0x400b0000

1000151c <core1_trampoline>:
1000151c:	bd03      	pop	{r0, r1, pc}
1000151e:	bf00      	nop

10001520 <core1_wrapper>:
10001520:	b510      	push	{r4, lr}
10001522:	4604      	mov	r4, r0
10001524:	f000 fa08 	bl	10001938 <runtime_run_per_core_initializers>
10001528:	4623      	mov	r3, r4
1000152a:	e8bd 4010 	ldmia.w	sp!, {r4, lr}
1000152e:	4718      	bx	r3

10001530 <multicore_launch_core1_raw>:
10001530:	b5f0      	push	{r4, r5, r6, r7, lr}
10001532:	4605      	mov	r5, r0
10001534:	b087      	sub	sp, #28
10001536:	2019      	movs	r0, #25
10001538:	4617      	mov	r7, r2
1000153a:	460e      	mov	r6, r1
1000153c:	f7ff fa02 	bl	10000944 <irq_is_enabled>
10001540:	2100      	movs	r1, #0
10001542:	4604      	mov	r4, r0
10001544:	2019      	movs	r0, #25
10001546:	f7ff f9e7 	bl	10000918 <irq_set_enabled>
1000154a:	2200      	movs	r2, #0
1000154c:	2001      	movs	r0, #1
1000154e:	f04f 4350 	mov.w	r3, #3489660928	; 0xd0000000
10001552:	4611      	mov	r1, r2
10001554:	4694      	mov	ip, r2
10001556:	e9cd 6504 	strd	r6, r5, [sp, #16]
1000155a:	e9cd 2200 	strd	r2, r2, [sp]
1000155e:	9703      	str	r7, [sp, #12]
10001560:	9002      	str	r0, [sp, #8]
10001562:	b1b9      	cbz	r1, 10001594 <multicore_launch_core1_raw+0x64>
10001564:	6d1a      	ldr	r2, [r3, #80]	; 0x50
10001566:	0795      	lsls	r5, r2, #30
10001568:	d5fc      	bpl.n	10001564 <multicore_launch_core1_raw+0x34>
1000156a:	6559      	str	r1, [r3, #84]	; 0x54
1000156c:	bf40      	sev
1000156e:	6d1a      	ldr	r2, [r3, #80]	; 0x50
10001570:	07d0      	lsls	r0, r2, #31
10001572:	d403      	bmi.n	1000157c <multicore_launch_core1_raw+0x4c>
10001574:	bf20      	wfe
10001576:	6d1a      	ldr	r2, [r3, #80]	; 0x50
10001578:	07d2      	lsls	r2, r2, #31
1000157a:	d5fb      	bpl.n	10001574 <multicore_launch_core1_raw+0x44>
1000157c:	6d9a      	ldr	r2, [r3, #88]	; 0x58
1000157e:	428a      	cmp	r2, r1
10001580:	d00d      	beq.n	1000159e <multicore_launch_core1_raw+0x6e>
10001582:	f04f 0c00 	mov.w	ip, #0
10001586:	aa06      	add	r2, sp, #24
10001588:	eb02 028c 	add.w	r2, r2, ip, lsl #2
1000158c:	f852 1c18 	ldr.w	r1, [r2, #-24]
10001590:	e7e7      	b.n	10001562 <multicore_launch_core1_raw+0x32>
10001592:	6d9a      	ldr	r2, [r3, #88]	; 0x58
10001594:	6d1a      	ldr	r2, [r3, #80]	; 0x50
10001596:	07d6      	lsls	r6, r2, #31
10001598:	d4fb      	bmi.n	10001592 <multicore_launch_core1_raw+0x62>
1000159a:	bf40      	sev
1000159c:	e7e2      	b.n	10001564 <multicore_launch_core1_raw+0x34>
1000159e:	f10c 0c01 	add.w	ip, ip, #1
100015a2:	f1bc 0f05 	cmp.w	ip, #5
100015a6:	d9ee      	bls.n	10001586 <multicore_launch_core1_raw+0x56>
100015a8:	4621      	mov	r1, r4
100015aa:	2019      	movs	r0, #25
100015ac:	b007      	add	sp, #28
100015ae:	e8bd 40f0 	ldmia.w	sp!, {r4, r5, r6, r7, lr}
100015b2:	f7ff b9b1 	b.w	10000918 <irq_set_enabled>
100015b6:	bf00      	nop

100015b8 <multicore_launch_core1>:
100015b8:	4b0b      	ldr	r3, [pc, #44]	; (100015e8 <multicore_launch_core1+0x30>)
100015ba:	4a0c      	ldr	r2, [pc, #48]	; (100015ec <multicore_launch_core1+0x34>)
100015bc:	b410      	push	{r4}
100015be:	429a      	cmp	r2, r3
100015c0:	bf88      	it	hi
100015c2:	f04f 33ff 	movhi.w	r3, #4294967295	; 0xffffffff
100015c6:	4c0a      	ldr	r4, [pc, #40]	; (100015f0 <multicore_launch_core1+0x38>)
100015c8:	4a0a      	ldr	r2, [pc, #40]	; (100015f4 <multicore_launch_core1+0x3c>)
100015ca:	f203 71f4 	addw	r1, r3, #2036	; 0x7f4
100015ce:	6892      	ldr	r2, [r2, #8]
100015d0:	f8c3 07f4 	str.w	r0, [r3, #2036]	; 0x7f4
100015d4:	f8c3 47fc 	str.w	r4, [r3, #2044]	; 0x7fc
100015d8:	4807      	ldr	r0, [pc, #28]	; (100015f8 <multicore_launch_core1+0x40>)
100015da:	f85d 4b04 	ldr.w	r4, [sp], #4
100015de:	f8c3 37f8 	str.w	r3, [r3, #2040]	; 0x7f8
100015e2:	f7ff bfa5 	b.w	10001530 <multicore_launch_core1_raw>
100015e6:	bf00      	nop
100015e8:	20080800 	.word	0x20080800
100015ec:	20080000 	.word	0x20080000
100015f0:	10001521 	.word	0x10001521
100015f4:	e000ed00 	.word	0xe000ed00
100015f8:	1000151d 	.word	0x1000151d

100015fc <clock_configure_internal>:
100015fc:	eb00 0c40 	add.w	ip, r0, r0, lsl #1
10001600:	ea4f 0c8c 	mov.w	ip, ip, lsl #2
10001604:	f10c 4c80 	add.w	ip, ip, #1073741824	; 0x40000000
10001608:	b5f0      	push	{r4, r5, r6, r7, lr}
1000160a:	f50c 3c80 	add.w	ip, ip, #65536	; 0x10000
1000160e:	9d05      	ldr	r5, [sp, #20]
10001610:	f8dc 4004 	ldr.w	r4, [ip, #4]
10001614:	f1a0 0e04 	sub.w	lr, r0, #4
10001618:	42ac      	cmp	r4, r5
1000161a:	fa5f fe8e 	uxtb.w	lr, lr
1000161e:	bf38      	it	cc
10001620:	f8cc 5004 	strcc.w	r5, [ip, #4]
10001624:	f1be 0f01 	cmp.w	lr, #1
10001628:	d927      	bls.n	1000167a <clock_configure_internal+0x7e>
1000162a:	f44f 6700 	mov.w	r7, #2048	; 0x800
1000162e:	4e24      	ldr	r6, [pc, #144]	; (100016c0 <clock_configure_internal+0xc4>)
10001630:	f50c 5440 	add.w	r4, ip, #12288	; 0x3000
10001634:	6027      	str	r7, [r4, #0]
10001636:	f856 7020 	ldr.w	r7, [r6, r0, lsl #2]
1000163a:	b9af      	cbnz	r7, 10001668 <clock_configure_internal+0x6c>
1000163c:	f8dc 4000 	ldr.w	r4, [ip]
10001640:	f50c 5780 	add.w	r7, ip, #4096	; 0x1000
10001644:	ea84 1242 	eor.w	r2, r4, r2, lsl #5
10001648:	f002 02e0 	and.w	r2, r2, #224	; 0xe0
1000164c:	f1be 0f01 	cmp.w	lr, #1
10001650:	603a      	str	r2, [r7, #0]
10001652:	d926      	bls.n	100016a2 <clock_configure_internal+0xa6>
10001654:	f44f 6200 	mov.w	r2, #2048	; 0x800
10001658:	f846 3020 	str.w	r3, [r6, r0, lsl #2]
1000165c:	f50c 5300 	add.w	r3, ip, #8192	; 0x2000
10001660:	601a      	str	r2, [r3, #0]
10001662:	f8cc 5004 	str.w	r5, [ip, #4]
10001666:	bdf0      	pop	{r4, r5, r6, r7, pc}
10001668:	6974      	ldr	r4, [r6, #20]
1000166a:	fbb4 f4f7 	udiv	r4, r4, r7
1000166e:	3401      	adds	r4, #1
10001670:	eb04 0444 	add.w	r4, r4, r4, lsl #1
10001674:	3c03      	subs	r4, #3
10001676:	d2fd      	bcs.n	10001674 <clock_configure_internal+0x78>
10001678:	e7e0      	b.n	1000163c <clock_configure_internal+0x40>
1000167a:	2901      	cmp	r1, #1
1000167c:	d1d5      	bne.n	1000162a <clock_configure_internal+0x2e>
1000167e:	2603      	movs	r6, #3
10001680:	f50c 5440 	add.w	r4, ip, #12288	; 0x3000
10001684:	6026      	str	r6, [r4, #0]
10001686:	f8dc 4008 	ldr.w	r4, [ip, #8]
1000168a:	07e4      	lsls	r4, r4, #31
1000168c:	d5fb      	bpl.n	10001686 <clock_configure_internal+0x8a>
1000168e:	f8dc 4000 	ldr.w	r4, [ip]
10001692:	f50c 5780 	add.w	r7, ip, #4096	; 0x1000
10001696:	ea84 1242 	eor.w	r2, r4, r2, lsl #5
1000169a:	f002 02e0 	and.w	r2, r2, #224	; 0xe0
1000169e:	4e08      	ldr	r6, [pc, #32]	; (100016c0 <clock_configure_internal+0xc4>)
100016a0:	603a      	str	r2, [r7, #0]
100016a2:	2201      	movs	r2, #1
100016a4:	f8dc 4000 	ldr.w	r4, [ip]
100016a8:	404c      	eors	r4, r1
100016aa:	f004 0403 	and.w	r4, r4, #3
100016ae:	603c      	str	r4, [r7, #0]
100016b0:	fa02 f101 	lsl.w	r1, r2, r1
100016b4:	f8dc 2008 	ldr.w	r2, [ip, #8]
100016b8:	420a      	tst	r2, r1
100016ba:	d0fb      	beq.n	100016b4 <clock_configure_internal+0xb8>
100016bc:	e7ca      	b.n	10001654 <clock_configure_internal+0x58>
100016be:	bf00      	nop
100016c0:	2000139c 	.word	0x2000139c

100016c4 <clock_configure_undivided>:
100016c4:	b510      	push	{r4, lr}
100016c6:	f44f 3480 	mov.w	r4, #65536	; 0x10000
100016ca:	b082      	sub	sp, #8
100016cc:	9400      	str	r4, [sp, #0]
100016ce:	f7ff ff95 	bl	100015fc <clock_configure_internal>
100016d2:	b002      	add	sp, #8
100016d4:	bd10      	pop	{r4, pc}
100016d6:	bf00      	nop

100016d8 <clock_get_hz>:
100016d8:	4b01      	ldr	r3, [pc, #4]	; (100016e0 <clock_get_hz+0x8>)
100016da:	f853 0020 	ldr.w	r0, [r3, r0, lsl #2]
100016de:	4770      	bx	lr
100016e0:	2000139c 	.word	0x2000139c

100016e4 <pll_init>:
100016e4:	b470      	push	{r4, r5, r6}
100016e6:	9c03      	ldr	r4, [sp, #12]
100016e8:	6805      	ldr	r5, [r0, #0]
100016ea:	0324      	lsls	r4, r4, #12
100016ec:	ea44 4303 	orr.w	r3, r4, r3, lsl #16
100016f0:	4c1b      	ldr	r4, [pc, #108]	; (10001760 <pll_init+0x7c>)
100016f2:	2d00      	cmp	r5, #0
100016f4:	fbb4 f4f1 	udiv	r4, r4, r1
100016f8:	fbb2 f2f4 	udiv	r2, r2, r4
100016fc:	db1f      	blt.n	1000173e <pll_init+0x5a>
100016fe:	4d19      	ldr	r5, [pc, #100]	; (10001764 <pll_init+0x80>)
10001700:	4c19      	ldr	r4, [pc, #100]	; (10001768 <pll_init+0x84>)
10001702:	42a8      	cmp	r0, r5
10001704:	bf0c      	ite	eq
10001706:	f44f 4500 	moveq.w	r5, #32768	; 0x8000
1000170a:	f44f 4580 	movne.w	r5, #16384	; 0x4000
1000170e:	4e17      	ldr	r6, [pc, #92]	; (1000176c <pll_init+0x88>)
10001710:	6025      	str	r5, [r4, #0]
10001712:	f504 5480 	add.w	r4, r4, #4096	; 0x1000
10001716:	6025      	str	r5, [r4, #0]
10001718:	68b4      	ldr	r4, [r6, #8]
1000171a:	ea35 0404 	bics.w	r4, r5, r4
1000171e:	d1fb      	bne.n	10001718 <pll_init+0x34>
10001720:	2521      	movs	r5, #33	; 0x21
10001722:	f500 5440 	add.w	r4, r0, #12288	; 0x3000
10001726:	3404      	adds	r4, #4
10001728:	6001      	str	r1, [r0, #0]
1000172a:	6082      	str	r2, [r0, #8]
1000172c:	6025      	str	r5, [r4, #0]
1000172e:	6802      	ldr	r2, [r0, #0]
10001730:	2a00      	cmp	r2, #0
10001732:	dafc      	bge.n	1000172e <pll_init+0x4a>
10001734:	2208      	movs	r2, #8
10001736:	60c3      	str	r3, [r0, #12]
10001738:	6022      	str	r2, [r4, #0]
1000173a:	bc70      	pop	{r4, r5, r6}
1000173c:	4770      	bx	lr
1000173e:	6804      	ldr	r4, [r0, #0]
10001740:	f004 043f 	and.w	r4, r4, #63	; 0x3f
10001744:	428c      	cmp	r4, r1
10001746:	d1da      	bne.n	100016fe <pll_init+0x1a>
10001748:	6884      	ldr	r4, [r0, #8]
1000174a:	f3c4 040b 	ubfx	r4, r4, #0, #12
1000174e:	4294      	cmp	r4, r2
10001750:	d1d5      	bne.n	100016fe <pll_init+0x1a>
10001752:	68c4      	ldr	r4, [r0, #12]
10001754:	f404 24ee 	and.w	r4, r4, #487424	; 0x77000
10001758:	429c      	cmp	r4, r3
1000175a:	d1d0      	bne.n	100016fe <pll_init+0x1a>
1000175c:	e7ed      	b.n	1000173a <pll_init+0x56>
1000175e:	bf00      	nop
10001760:	00b71b00 	.word	0x00b71b00
10001764:	40058000 	.word	0x40058000
10001768:	40022000 	.word	0x40022000
1000176c:	40020000 	.word	0x40020000

10001770 <watchdog_reboot>:
10001770:	b430      	push	{r4, r5}
10001772:	f04f 4480 	mov.w	r4, #1073741824	; 0x40000000
10001776:	4b1d      	ldr	r3, [pc, #116]	; (100017ec <watchdog_reboot+0x7c>)
10001778:	601c      	str	r4, [r3, #0]
1000177a:	b1e0      	cbz	r0, 100017b6 <watchdog_reboot+0x46>
1000177c:	4c1c      	ldr	r4, [pc, #112]	; (100017f0 <watchdog_reboot+0x80>)
1000177e:	f5a3 5340 	sub.w	r3, r3, #12288	; 0x3000
10001782:	61dc      	str	r4, [r3, #28]
10001784:	4c1b      	ldr	r4, [pc, #108]	; (100017f4 <watchdog_reboot+0x84>)
10001786:	f040 0001 	orr.w	r0, r0, #1
1000178a:	4044      	eors	r4, r0
1000178c:	621c      	str	r4, [r3, #32]
1000178e:	6259      	str	r1, [r3, #36]	; 0x24
10001790:	6298      	str	r0, [r3, #40]	; 0x28
10001792:	f04f 4580 	mov.w	r5, #1073741824	; 0x40000000
10001796:	f04f 61e0 	mov.w	r1, #117440512	; 0x7000000
1000179a:	4b14      	ldr	r3, [pc, #80]	; (100017ec <watchdog_reboot+0x7c>)
1000179c:	4816      	ldr	r0, [pc, #88]	; (100017f8 <watchdog_reboot+0x88>)
1000179e:	4c17      	ldr	r4, [pc, #92]	; (100017fc <watchdog_reboot+0x8c>)
100017a0:	601d      	str	r5, [r3, #0]
100017a2:	6084      	str	r4, [r0, #8]
100017a4:	6019      	str	r1, [r3, #0]
100017a6:	b94a      	cbnz	r2, 100017bc <watchdog_reboot+0x4c>
100017a8:	bc30      	pop	{r4, r5}
100017aa:	f04f 4200 	mov.w	r2, #2147483648	; 0x80000000
100017ae:	f5a3 5380 	sub.w	r3, r3, #4096	; 0x1000
100017b2:	601a      	str	r2, [r3, #0]
100017b4:	4770      	bx	lr
100017b6:	4b12      	ldr	r3, [pc, #72]	; (10001800 <watchdog_reboot+0x90>)
100017b8:	61d8      	str	r0, [r3, #28]
100017ba:	e7ea      	b.n	10001792 <watchdog_reboot+0x22>
100017bc:	f44f 737a 	mov.w	r3, #1000	; 0x3e8
100017c0:	fb03 f202 	mul.w	r2, r3, r2
100017c4:	f1b2 7f80 	cmp.w	r2, #16777216	; 0x1000000
100017c8:	d209      	bcs.n	100017de <watchdog_reboot+0x6e>
100017ca:	4b0e      	ldr	r3, [pc, #56]	; (10001804 <watchdog_reboot+0x94>)
100017cc:	601a      	str	r2, [r3, #0]
100017ce:	f04f 4180 	mov.w	r1, #1073741824	; 0x40000000
100017d2:	bc30      	pop	{r4, r5}
100017d4:	480a      	ldr	r0, [pc, #40]	; (10001800 <watchdog_reboot+0x90>)
100017d6:	4b0c      	ldr	r3, [pc, #48]	; (10001808 <watchdog_reboot+0x98>)
100017d8:	6042      	str	r2, [r0, #4]
100017da:	6019      	str	r1, [r3, #0]
100017dc:	4770      	bx	lr
100017de:	f06f 437f 	mvn.w	r3, #4278190080	; 0xff000000
100017e2:	4908      	ldr	r1, [pc, #32]	; (10001804 <watchdog_reboot+0x94>)
100017e4:	461a      	mov	r2, r3
100017e6:	600b      	str	r3, [r1, #0]
100017e8:	e7f1      	b.n	100017ce <watchdog_reboot+0x5e>
100017ea:	bf00      	nop
100017ec:	400db000 	.word	0x400db000
100017f0:	b007c0d3 	.word	0xb007c0d3
100017f4:	4ff83f2d 	.word	0x4ff83f2d
100017f8:	4001a000 	.word	0x4001a000
100017fc:	01fffff3 	.word	0x01fffff3
10001800:	400d8000 	.word	0x400d8000
10001804:	200017fc 	.word	0x200017fc
10001808:	400da000 	.word	0x400da000

1000180c <tick_start>:
1000180c:	2301      	movs	r3, #1
1000180e:	eb00 0040 	add.w	r0, r0, r0, lsl #1
10001812:	0080      	lsls	r0, r0, #2
10001814:	f100 4080 	add.w	r0, r0, #1073741824	; 0x40000000
10001818:	f500 1084 	add.w	r0, r0, #1081344	; 0x108000
1000181c:	6041      	str	r1, [r0, #4]
1000181e:	6003      	str	r3, [r0, #0]
10001820:	4770      	bx	lr
10001822:	bf00      	nop

10001824 <rom_reboot.constprop.0.isra.0>:
10001824:	b510      	push	{r4, lr}
10001826:	2400      	movs	r4, #0
10001828:	b082      	sub	sp, #8
1000182a:	460b      	mov	r3, r1
1000182c:	8ae4      	ldrh	r4, [r4, #22]
1000182e:	2100      	movs	r1, #0
10001830:	e841 f100 	tt	r1, r1
10001834:	e9cd 0300 	strd	r0, r3, [sp]
10001838:	024b      	lsls	r3, r1, #9
1000183a:	bf54      	ite	pl
1000183c:	2110      	movpl	r1, #16
1000183e:	2104      	movmi	r1, #4
10001840:	f244 2052 	movw	r0, #16978	; 0x4252
10001844:	47a0      	blx	r4
10001846:	e9dd 2300 	ldrd	r2, r3, [sp]
1000184a:	4686      	mov	lr, r0
1000184c:	210a      	movs	r1, #10
1000184e:	f44f 7081 	mov.w	r0, #258	; 0x102
10001852:	46f4      	mov	ip, lr
10001854:	b002      	add	sp, #8
10001856:	e8bd 4010 	ldmia.w	sp!, {r4, lr}
1000185a:	4760      	bx	ip

1000185c <rom_func_lookup>:
1000185c:	2300      	movs	r3, #0
1000185e:	8adb      	ldrh	r3, [r3, #22]
10001860:	2200      	movs	r2, #0
10001862:	e842 f200 	tt	r2, r2
10001866:	0252      	lsls	r2, r2, #9
10001868:	d401      	bmi.n	1000186e <rom_func_lookup+0x12>
1000186a:	2110      	movs	r1, #16
1000186c:	4718      	bx	r3
1000186e:	2104      	movs	r1, #4
10001870:	4718      	bx	r3
10001872:	bf00      	nop

10001874 <rom_reset_usb_boot>:
10001874:	b508      	push	{r3, lr}
10001876:	4603      	mov	r3, r0
10001878:	4608      	mov	r0, r1
1000187a:	b12b      	cbz	r3, 10001888 <rom_reset_usb_boot+0x14>
1000187c:	fa93 f3a3 	rbit	r3, r3
10001880:	fab3 f383 	clz	r3, r3
10001884:	f041 0020 	orr.w	r0, r1, #32
10001888:	4619      	mov	r1, r3
1000188a:	f7ff ffcb 	bl	10001824 <rom_reboot.constprop.0.isra.0>
1000188e:	bf00      	nop

10001890 <rom_reset_usb_boot_extra>:
10001890:	b508      	push	{r3, lr}
10001892:	460b      	mov	r3, r1
10001894:	1e01      	subs	r1, r0, #0
10001896:	db02      	blt.n	1000189e <rom_reset_usb_boot_extra+0xe>
10001898:	b122      	cbz	r2, 100018a4 <rom_reset_usb_boot_extra+0x14>
1000189a:	f043 0330 	orr.w	r3, r3, #48	; 0x30
1000189e:	4618      	mov	r0, r3
100018a0:	f7ff ffc0 	bl	10001824 <rom_reboot.constprop.0.isra.0>
100018a4:	f043 0320 	orr.w	r3, r3, #32
100018a8:	e7f9      	b.n	1000189e <rom_reset_usb_boot_extra+0xe>
100018aa:	bf00      	nop

100018ac <runtime_init_bootrom_locking_enable>:
100018ac:	4a03      	ldr	r2, [pc, #12]	; (100018bc <runtime_init_bootrom_locking_enable+0x10>)
100018ae:	f8d2 3828 	ldr.w	r3, [r2, #2088]	; 0x828
100018b2:	2b00      	cmp	r3, #0
100018b4:	d0fb      	beq.n	100018ae <runtime_init_bootrom_locking_enable+0x2>
100018b6:	f3bf 8f5f 	dmb	sy
100018ba:	4770      	bx	lr
100018bc:	400e0000 	.word	0x400e0000

100018c0 <runtime_init_boot_locks_reset>:
100018c0:	2100      	movs	r1, #0
100018c2:	4b04      	ldr	r3, [pc, #16]	; (100018d4 <runtime_init_boot_locks_reset+0x14>)
100018c4:	4a04      	ldr	r2, [pc, #16]	; (100018d8 <runtime_init_boot_locks_reset+0x18>)
100018c6:	f3bf 8f5f 	dmb	sy
100018ca:	f843 1b04 	str.w	r1, [r3], #4
100018ce:	4293      	cmp	r3, r2
100018d0:	d1f9      	bne.n	100018c6 <runtime_init_boot_locks_reset+0x6>
100018d2:	4770      	bx	lr
100018d4:	400e080c 	.word	0x400e080c
100018d8:	400e082c 	.word	0x400e082c

100018dc <xosc_init>:
100018dc:	b410      	push	{r4}
100018de:	202f      	movs	r0, #47	; 0x2f
100018e0:	f44f 642a 	mov.w	r4, #2720	; 0xaa0
100018e4:	4a05      	ldr	r2, [pc, #20]	; (100018fc <xosc_init+0x20>)
100018e6:	4b06      	ldr	r3, [pc, #24]	; (10001900 <xosc_init+0x24>)
100018e8:	4906      	ldr	r1, [pc, #24]	; (10001904 <xosc_init+0x28>)
100018ea:	6014      	str	r4, [r2, #0]
100018ec:	60d0      	str	r0, [r2, #12]
100018ee:	6019      	str	r1, [r3, #0]
100018f0:	6853      	ldr	r3, [r2, #4]
100018f2:	2b00      	cmp	r3, #0
100018f4:	dafc      	bge.n	100018f0 <xosc_init+0x14>
100018f6:	f85d 4b04 	ldr.w	r4, [sp], #4
100018fa:	4770      	bx	lr
100018fc:	40048000 	.word	0x40048000
10001900:	4004a000 	.word	0x4004a000
10001904:	00fab000 	.word	0x00fab000

10001908 <first_per_core_initializer>:
10001908:	4770      	bx	lr
1000190a:	bf00      	nop

1000190c <hard_assertion_failure>:
1000190c:	b508      	push	{r3, lr}
1000190e:	4801      	ldr	r0, [pc, #4]	; (10001914 <hard_assertion_failure+0x8>)
10001910:	f7fe febc 	bl	1000068c <panic>
10001914:	10004540 	.word	0x10004540

10001918 <runtime_run_initializers>:
10001918:	b538      	push	{r3, r4, r5, lr}
1000191a:	4c05      	ldr	r4, [pc, #20]	; (10001930 <runtime_run_initializers+0x18>)
1000191c:	4d05      	ldr	r5, [pc, #20]	; (10001934 <runtime_run_initializers+0x1c>)
1000191e:	42ac      	cmp	r4, r5
10001920:	d204      	bcs.n	1000192c <runtime_run_initializers+0x14>
10001922:	f854 3b04 	ldr.w	r3, [r4], #4
10001926:	4798      	blx	r3
10001928:	42ac      	cmp	r4, r5
1000192a:	d3fa      	bcc.n	10001922 <runtime_run_initializers+0xa>
1000192c:	bd38      	pop	{r3, r4, r5, pc}
1000192e:	bf00      	nop
10001930:	10004448 	.word	0x10004448
10001934:	10004488 	.word	0x10004488

10001938 <runtime_run_per_core_initializers>:
10001938:	b538      	push	{r3, r4, r5, lr}
1000193a:	4c05      	ldr	r4, [pc, #20]	; (10001950 <runtime_run_per_core_initializers+0x18>)
1000193c:	4d05      	ldr	r5, [pc, #20]	; (10001954 <runtime_run_per_core_initializers+0x1c>)
1000193e:	42ac      	cmp	r4, r5
10001940:	d204      	bcs.n	1000194c <runtime_run_per_core_initializers+0x14>
10001942:	f854 3b04 	ldr.w	r3, [r4], #4
10001946:	4798      	blx	r3
10001948:	42ac      	cmp	r4, r5
1000194a:	d3fa      	bcc.n	10001942 <runtime_run_per_core_initializers+0xa>
1000194c:	bd38      	pop	{r3, r4, r5, pc}
1000194e:	bf00      	nop
10001950:	10004474 	.word	0x10004474
10001954:	10004488 	.word	0x10004488

10001958 <runtime_init_early_resets>:
10001958:	b410      	push	{r4}
1000195a:	4807      	ldr	r0, [pc, #28]	; (10001978 <runtime_init_early_resets+0x20>)
1000195c:	4c07      	ldr	r4, [pc, #28]	; (1000197c <runtime_init_early_resets+0x24>)
1000195e:	4b08      	ldr	r3, [pc, #32]	; (10001980 <runtime_init_early_resets+0x28>)
10001960:	4a08      	ldr	r2, [pc, #32]	; (10001984 <runtime_init_early_resets+0x2c>)
10001962:	4909      	ldr	r1, [pc, #36]	; (10001988 <runtime_init_early_resets+0x30>)
10001964:	6004      	str	r4, [r0, #0]
10001966:	601a      	str	r2, [r3, #0]
10001968:	688b      	ldr	r3, [r1, #8]
1000196a:	ea32 0303 	bics.w	r3, r2, r3
1000196e:	d1fb      	bne.n	10001968 <runtime_init_early_resets+0x10>
10001970:	f85d 4b04 	ldr.w	r4, [sp], #4
10001974:	4770      	bx	lr
10001976:	bf00      	nop
10001978:	40022000 	.word	0x40022000
1000197c:	efef3b7f 	.word	0xefef3b7f
10001980:	40023000 	.word	0x40023000
10001984:	03f3fff6 	.word	0x03f3fff6
10001988:	40020000 	.word	0x40020000

1000198c <runtime_init_usb_power_down>:
1000198c:	4b04      	ldr	r3, [pc, #16]	; (100019a0 <runtime_init_usb_power_down+0x14>)
1000198e:	6cdb      	ldr	r3, [r3, #76]	; 0x4c
10001990:	f5b3 4f00 	cmp.w	r3, #32768	; 0x8000
10001994:	d103      	bne.n	1000199e <runtime_init_usb_power_down+0x12>
10001996:	f44f 2280 	mov.w	r2, #262144	; 0x40000
1000199a:	4b02      	ldr	r3, [pc, #8]	; (100019a4 <runtime_init_usb_power_down+0x18>)
1000199c:	64da      	str	r2, [r3, #76]	; 0x4c
1000199e:	4770      	bx	lr
100019a0:	50110000 	.word	0x50110000
100019a4:	50112000 	.word	0x50112000

100019a8 <runtime_init_per_core_enable_coprocessors>:
100019a8:	f04f 22e0 	mov.w	r2, #3758153728	; 0xe000e000
100019ac:	4b04      	ldr	r3, [pc, #16]	; (100019c0 <runtime_init_per_core_enable_coprocessors+0x18>)
100019ae:	f8d2 1d88 	ldr.w	r1, [r2, #3464]	; 0xd88
100019b2:	430b      	orrs	r3, r1
100019b4:	f8c2 3d88 	str.w	r3, [r2, #3464]	; 0xd88
100019b8:	ee10 0430 	dcp_rcmp r0
100019bc:	4770      	bx	lr
100019be:	bf00      	nop
100019c0:	00300303 	.word	0x00300303

100019c4 <runtime_init_post_clock_resets>:
100019c4:	f06f 4160 	mvn.w	r1, #3758096384	; 0xe0000000
100019c8:	4b04      	ldr	r3, [pc, #16]	; (100019dc <runtime_init_post_clock_resets+0x18>)
100019ca:	4a05      	ldr	r2, [pc, #20]	; (100019e0 <runtime_init_post_clock_resets+0x1c>)
100019cc:	6019      	str	r1, [r3, #0]
100019ce:	6893      	ldr	r3, [r2, #8]
100019d0:	43db      	mvns	r3, r3
100019d2:	f033 4360 	bics.w	r3, r3, #3758096384	; 0xe0000000
100019d6:	d1fa      	bne.n	100019ce <runtime_init_post_clock_resets+0xa>
100019d8:	4770      	bx	lr
100019da:	bf00      	nop
100019dc:	40023000 	.word	0x40023000
100019e0:	40020000 	.word	0x40020000

100019e4 <runtime_init_bootrom_reset>:
100019e4:	b510      	push	{r4, lr}
100019e6:	f245 2053 	movw	r0, #21075	; 0x5253
100019ea:	f7ff ff37 	bl	1000185c <rom_func_lookup>
100019ee:	e8bd 4010 	ldmia.w	sp!, {r4, lr}
100019f2:	4603      	mov	r3, r0
100019f4:	2004      	movs	r0, #4
100019f6:	4718      	bx	r3

100019f8 <runtime_init_per_core_bootrom_reset>:
100019f8:	b510      	push	{r4, lr}
100019fa:	f245 2053 	movw	r0, #21075	; 0x5253
100019fe:	f7ff ff2d 	bl	1000185c <rom_func_lookup>
10001a02:	e8bd 4010 	ldmia.w	sp!, {r4, lr}
10001a06:	4603      	mov	r3, r0
10001a08:	2001      	movs	r0, #1
10001a0a:	4718      	bx	r3

10001a0c <runtime_init_spin_locks_reset>:
10001a0c:	f7fe bf12 	b.w	10000834 <spin_locks_reset>

10001a10 <runtime_init_install_ram_vector_table>:
10001a10:	b510      	push	{r4, lr}
10001a12:	4b05      	ldr	r3, [pc, #20]	; (10001a28 <runtime_init_install_ram_vector_table+0x18>)
10001a14:	4c05      	ldr	r4, [pc, #20]	; (10001a2c <runtime_init_install_ram_vector_table+0x1c>)
10001a16:	f44f 7288 	mov.w	r2, #272	; 0x110
10001a1a:	4618      	mov	r0, r3
10001a1c:	68a1      	ldr	r1, [r4, #8]
10001a1e:	f002 fbcb 	bl	100041b8 <memcpy>
10001a22:	60a0      	str	r0, [r4, #8]
10001a24:	bd10      	pop	{r4, pc}
10001a26:	bf00      	nop
10001a28:	20000000 	.word	0x20000000
10001a2c:	e000ed00 	.word	0xe000ed00

10001a30 <runtime_init_clocks>:
10001a30:	2300      	movs	r3, #0
10001a32:	b5f0      	push	{r4, r5, r6, r7, lr}
10001a34:	4c2b      	ldr	r4, [pc, #172]	; (10001ae4 <runtime_init_clocks+0xb4>)
10001a36:	b083      	sub	sp, #12
10001a38:	f8c4 3084 	str.w	r3, [r4, #132]	; 0x84
10001a3c:	f7ff ff4e 	bl	100018dc <xosc_init>
10001a40:	2201      	movs	r2, #1
10001a42:	4b29      	ldr	r3, [pc, #164]	; (10001ae8 <runtime_init_clocks+0xb8>)
10001a44:	63da      	str	r2, [r3, #60]	; 0x3c
10001a46:	6c63      	ldr	r3, [r4, #68]	; 0x44
10001a48:	2b01      	cmp	r3, #1
10001a4a:	d1fc      	bne.n	10001a46 <runtime_init_clocks+0x16>
10001a4c:	2103      	movs	r1, #3
10001a4e:	4a26      	ldr	r2, [pc, #152]	; (10001ae8 <runtime_init_clocks+0xb8>)
10001a50:	4b24      	ldr	r3, [pc, #144]	; (10001ae4 <runtime_init_clocks+0xb4>)
10001a52:	6311      	str	r1, [r2, #48]	; 0x30
10001a54:	6b9d      	ldr	r5, [r3, #56]	; 0x38
10001a56:	2d01      	cmp	r5, #1
10001a58:	d1fc      	bne.n	10001a54 <runtime_init_clocks+0x24>
10001a5a:	2305      	movs	r3, #5
10001a5c:	2702      	movs	r7, #2
10001a5e:	461e      	mov	r6, r3
10001a60:	2400      	movs	r4, #0
10001a62:	4629      	mov	r1, r5
10001a64:	4a21      	ldr	r2, [pc, #132]	; (10001aec <runtime_init_clocks+0xbc>)
10001a66:	4822      	ldr	r0, [pc, #136]	; (10001af0 <runtime_init_clocks+0xc0>)
10001a68:	9700      	str	r7, [sp, #0]
10001a6a:	f7ff fe3b 	bl	100016e4 <pll_init>
10001a6e:	4629      	mov	r1, r5
10001a70:	4633      	mov	r3, r6
10001a72:	4a20      	ldr	r2, [pc, #128]	; (10001af4 <runtime_init_clocks+0xc4>)
10001a74:	4820      	ldr	r0, [pc, #128]	; (10001af8 <runtime_init_clocks+0xc8>)
10001a76:	9600      	str	r6, [sp, #0]
10001a78:	f7ff fe34 	bl	100016e4 <pll_init>
10001a7c:	4639      	mov	r1, r7
10001a7e:	4622      	mov	r2, r4
10001a80:	2004      	movs	r0, #4
10001a82:	4b1e      	ldr	r3, [pc, #120]	; (10001afc <runtime_init_clocks+0xcc>)
10001a84:	f7ff fe1e 	bl	100016c4 <clock_configure_undivided>
10001a88:	4629      	mov	r1, r5
10001a8a:	4622      	mov	r2, r4
10001a8c:	4630      	mov	r0, r6
10001a8e:	4b1c      	ldr	r3, [pc, #112]	; (10001b00 <runtime_init_clocks+0xd0>)
10001a90:	f7ff fe18 	bl	100016c4 <clock_configure_undivided>
10001a94:	4622      	mov	r2, r4
10001a96:	2008      	movs	r0, #8
10001a98:	4621      	mov	r1, r4
10001a9a:	4b1a      	ldr	r3, [pc, #104]	; (10001b04 <runtime_init_clocks+0xd4>)
10001a9c:	f7ff fe12 	bl	100016c4 <clock_configure_undivided>
10001aa0:	4622      	mov	r2, r4
10001aa2:	2009      	movs	r0, #9
10001aa4:	4621      	mov	r1, r4
10001aa6:	4b17      	ldr	r3, [pc, #92]	; (10001b04 <runtime_init_clocks+0xd4>)
10001aa8:	f7ff fe0c 	bl	100016c4 <clock_configure_undivided>
10001aac:	4622      	mov	r2, r4
10001aae:	2006      	movs	r0, #6
10001ab0:	4621      	mov	r1, r4
10001ab2:	4b13      	ldr	r3, [pc, #76]	; (10001b00 <runtime_init_clocks+0xd0>)
10001ab4:	f7ff fe06 	bl	100016c4 <clock_configure_undivided>
10001ab8:	4b11      	ldr	r3, [pc, #68]	; (10001b00 <runtime_init_clocks+0xd0>)
10001aba:	4622      	mov	r2, r4
10001abc:	2007      	movs	r0, #7
10001abe:	4621      	mov	r1, r4
10001ac0:	f7ff fe00 	bl	100016c4 <clock_configure_undivided>
10001ac4:	2004      	movs	r0, #4
10001ac6:	f7ff fe07 	bl	100016d8 <clock_get_hz>
10001aca:	4d0f      	ldr	r5, [pc, #60]	; (10001b08 <runtime_init_clocks+0xd8>)
10001acc:	fba5 3500 	umull	r3, r5, r5, r0
10001ad0:	0cad      	lsrs	r5, r5, #18
10001ad2:	b2e0      	uxtb	r0, r4
10001ad4:	4629      	mov	r1, r5
10001ad6:	3401      	adds	r4, #1
10001ad8:	f7ff fe98 	bl	1000180c <tick_start>
10001adc:	2c06      	cmp	r4, #6
10001ade:	d1f8      	bne.n	10001ad2 <runtime_init_clocks+0xa2>
10001ae0:	b003      	add	sp, #12
10001ae2:	bdf0      	pop	{r4, r5, r6, r7, pc}
10001ae4:	40010000 	.word	0x40010000
10001ae8:	40013000 	.word	0x40013000
10001aec:	59682f00 	.word	0x59682f00
10001af0:	40050000 	.word	0x40050000
10001af4:	47868c00 	.word	0x47868c00
10001af8:	40058000 	.word	0x40058000
10001afc:	00b71b00 	.word	0x00b71b00
10001b00:	08f0d180 	.word	0x08f0d180
10001b04:	02dc6c00 	.word	0x02dc6c00
10001b08:	431bde83 	.word	0x431bde83

10001b0c <_out_char>:
10001b0c:	b900      	cbnz	r0, 10001b10 <_out_char+0x4>
10001b0e:	4770      	bx	lr
10001b10:	f000 b95a 	b.w	10001dc8 <__wrap_putchar>

10001b14 <weak_raw_vprintf>:
10001b14:	b510      	push	{r4, lr}
10001b16:	4b09      	ldr	r3, [pc, #36]	; (10001b3c <weak_raw_vprintf+0x28>)
10001b18:	b084      	sub	sp, #16
10001b1a:	681c      	ldr	r4, [r3, #0]
10001b1c:	b14c      	cbz	r4, 10001b32 <weak_raw_vprintf+0x1e>
10001b1e:	4603      	mov	r3, r0
10001b20:	9100      	str	r1, [sp, #0]
10001b22:	f04f 32ff 	mov.w	r2, #4294967295	; 0xffffffff
10001b26:	a903      	add	r1, sp, #12
10001b28:	4805      	ldr	r0, [pc, #20]	; (10001b40 <weak_raw_vprintf+0x2c>)
10001b2a:	47a0      	blx	r4
10001b2c:	2001      	movs	r0, #1
10001b2e:	b004      	add	sp, #16
10001b30:	bd10      	pop	{r4, pc}
10001b32:	f000 f959 	bl	10001de8 <__wrap_puts>
10001b36:	4620      	mov	r0, r4
10001b38:	b004      	add	sp, #16
10001b3a:	bd10      	pop	{r4, pc}
10001b3c:	200017f8 	.word	0x200017f8
10001b40:	10001b0d 	.word	0x10001b0d

10001b44 <_exit>:
10001b44:	be00      	bkpt	0x0000
10001b46:	e7fd      	b.n	10001b44 <_exit>

10001b48 <exit>:
10001b48:	b508      	push	{r3, lr}
10001b4a:	f7ff fffb 	bl	10001b44 <_exit>
10001b4e:	bf00      	nop

10001b50 <runtime_init>:
10001b50:	b538      	push	{r3, r4, r5, lr}
10001b52:	4d06      	ldr	r5, [pc, #24]	; (10001b6c <runtime_init+0x1c>)
10001b54:	4c06      	ldr	r4, [pc, #24]	; (10001b70 <runtime_init+0x20>)
10001b56:	f7ff fedf 	bl	10001918 <runtime_run_initializers>
10001b5a:	42ac      	cmp	r4, r5
10001b5c:	d204      	bcs.n	10001b68 <runtime_init+0x18>
10001b5e:	f854 3b04 	ldr.w	r3, [r4], #4
10001b62:	4798      	blx	r3
10001b64:	42ac      	cmp	r4, r5
10001b66:	d3fa      	bcc.n	10001b5e <runtime_init+0xe>
10001b68:	bd38      	pop	{r3, r4, r5, pc}
10001b6a:	bf00      	nop
10001b6c:	10004490 	.word	0x10004490
10001b70:	10004488 	.word	0x10004488

10001b74 <stdio_out_chars_no_crlf>:
10001b74:	6803      	ldr	r3, [r0, #0]
10001b76:	4608      	mov	r0, r1
10001b78:	4611      	mov	r1, r2
10001b7a:	4718      	bx	r3

10001b7c <stdio_out_chars_crlf.part.0>:
10001b7c:	e92d 47f0 	stmdb	sp!, {r4, r5, r6, r7, r8, r9, sl, lr}
10001b80:	f1b2 0900 	subs.w	r9, r2, #0
10001b84:	dd2c      	ble.n	10001be0 <stdio_out_chars_crlf.part.0+0x64>
10001b86:	2400      	movs	r4, #0
10001b88:	4682      	mov	sl, r0
10001b8a:	460f      	mov	r7, r1
10001b8c:	2501      	movs	r5, #1
10001b8e:	4620      	mov	r0, r4
10001b90:	f8df 807c 	ldr.w	r8, [pc, #124]	; 10001c10 <stdio_out_chars_crlf.part.0+0x94>
10001b94:	1e4e      	subs	r6, r1, #1
10001b96:	b32c      	cbz	r4, 10001be4 <stdio_out_chars_crlf.part.0+0x68>
10001b98:	7833      	ldrb	r3, [r6, #0]
10001b9a:	f816 2f01 	ldrb.w	r2, [r6, #1]!
10001b9e:	f1a3 030d 	sub.w	r3, r3, #13
10001ba2:	fab3 f383 	clz	r3, r3
10001ba6:	2a0a      	cmp	r2, #10
10001ba8:	ea4f 1353 	mov.w	r3, r3, lsr #5
10001bac:	d020      	beq.n	10001bf0 <stdio_out_chars_crlf.part.0+0x74>
10001bae:	462b      	mov	r3, r5
10001bb0:	4599      	cmp	r9, r3
10001bb2:	f104 0401 	add.w	r4, r4, #1
10001bb6:	f105 0501 	add.w	r5, r5, #1
10001bba:	dcec      	bgt.n	10001b96 <stdio_out_chars_crlf.part.0+0x1a>
10001bbc:	4581      	cmp	r9, r0
10001bbe:	dd05      	ble.n	10001bcc <stdio_out_chars_crlf.part.0+0x50>
10001bc0:	eba9 0100 	sub.w	r1, r9, r0
10001bc4:	f8da 3000 	ldr.w	r3, [sl]
10001bc8:	4438      	add	r0, r7
10001bca:	4798      	blx	r3
10001bcc:	444f      	add	r7, r9
10001bce:	f817 3c01 	ldrb.w	r3, [r7, #-1]
10001bd2:	f1a3 030d 	sub.w	r3, r3, #13
10001bd6:	fab3 f383 	clz	r3, r3
10001bda:	095b      	lsrs	r3, r3, #5
10001bdc:	f88a 3014 	strb.w	r3, [sl, #20]
10001be0:	e8bd 87f0 	ldmia.w	sp!, {r4, r5, r6, r7, r8, r9, sl, pc}
10001be4:	f816 2f01 	ldrb.w	r2, [r6, #1]!
10001be8:	f89a 3014 	ldrb.w	r3, [sl, #20]
10001bec:	2a0a      	cmp	r2, #10
10001bee:	d1de      	bne.n	10001bae <stdio_out_chars_crlf.part.0+0x32>
10001bf0:	2b00      	cmp	r3, #0
10001bf2:	d1dc      	bne.n	10001bae <stdio_out_chars_crlf.part.0+0x32>
10001bf4:	42a0      	cmp	r0, r4
10001bf6:	da04      	bge.n	10001c02 <stdio_out_chars_crlf.part.0+0x86>
10001bf8:	1a21      	subs	r1, r4, r0
10001bfa:	f8da 3000 	ldr.w	r3, [sl]
10001bfe:	4438      	add	r0, r7
10001c00:	4798      	blx	r3
10001c02:	4640      	mov	r0, r8
10001c04:	2102      	movs	r1, #2
10001c06:	f8da 3000 	ldr.w	r3, [sl]
10001c0a:	4798      	blx	r3
10001c0c:	4628      	mov	r0, r5
10001c0e:	e7ce      	b.n	10001bae <stdio_out_chars_crlf.part.0+0x32>
10001c10:	100045dc 	.word	0x100045dc

10001c14 <stdio_out_chars_crlf>:
10001c14:	b510      	push	{r4, lr}
10001c16:	7d44      	ldrb	r4, [r0, #21]
10001c18:	b11c      	cbz	r4, 10001c22 <stdio_out_chars_crlf+0xe>
10001c1a:	e8bd 4010 	ldmia.w	sp!, {r4, lr}
10001c1e:	f7ff bfad 	b.w	10001b7c <stdio_out_chars_crlf.part.0>
10001c22:	4603      	mov	r3, r0
10001c24:	e8bd 4010 	ldmia.w	sp!, {r4, lr}
10001c28:	468c      	mov	ip, r1
10001c2a:	681b      	ldr	r3, [r3, #0]
10001c2c:	4611      	mov	r1, r2
10001c2e:	4660      	mov	r0, ip
10001c30:	4718      	bx	r3
10001c32:	bf00      	nop

10001c34 <stdio_put_string>:
10001c34:	e92d 4ff0 	stmdb	sp!, {r4, r5, r6, r7, r8, r9, sl, fp, lr}
10001c38:	b083      	sub	sp, #12
10001c3a:	460d      	mov	r5, r1
10001c3c:	4691      	mov	r9, r2
10001c3e:	461f      	mov	r7, r3
10001c40:	4680      	mov	r8, r0
10001c42:	f7ff fc29 	bl	10001498 <time_us_64>
10001c46:	4a24      	ldr	r2, [pc, #144]	; (10001cd8 <stdio_put_string+0xa4>)
10001c48:	1882      	adds	r2, r0, r2
10001c4a:	f141 0300 	adc.w	r3, r1, #0
10001c4e:	2b00      	cmp	r3, #0
10001c50:	bfbc      	itt	lt
10001c52:	f04f 32ff 	movlt.w	r2, #4294967295	; 0xffffffff
10001c56:	f06f 4300 	mvnlt.w	r3, #2147483648	; 0x80000000
10001c5a:	4820      	ldr	r0, [pc, #128]	; (10001cdc <stdio_put_string+0xa8>)
10001c5c:	f002 fbd4 	bl	10004408 <__mutex_try_enter_block_until_veneer>
10001c60:	1c6b      	adds	r3, r5, #1
10001c62:	4682      	mov	sl, r0
10001c64:	d103      	bne.n	10001c6e <stdio_put_string+0x3a>
10001c66:	4640      	mov	r0, r8
10001c68:	f002 fb6e 	bl	10004348 <strlen>
10001c6c:	4605      	mov	r5, r0
10001c6e:	4b1c      	ldr	r3, [pc, #112]	; (10001ce0 <stdio_put_string+0xac>)
10001c70:	4e1c      	ldr	r6, [pc, #112]	; (10001ce4 <stdio_put_string+0xb0>)
10001c72:	681c      	ldr	r4, [r3, #0]
10001c74:	4b1c      	ldr	r3, [pc, #112]	; (10001ce8 <stdio_put_string+0xb4>)
10001c76:	2f00      	cmp	r7, #0
10001c78:	bf08      	it	eq
10001c7a:	461e      	moveq	r6, r3
10001c7c:	b1ec      	cbz	r4, 10001cba <stdio_put_string+0x86>
10001c7e:	f04f 0b0a 	mov.w	fp, #10
10001c82:	4f1a      	ldr	r7, [pc, #104]	; (10001cec <stdio_put_string+0xb8>)
10001c84:	e001      	b.n	10001c8a <stdio_put_string+0x56>
10001c86:	6924      	ldr	r4, [r4, #16]
10001c88:	b1bc      	cbz	r4, 10001cba <stdio_put_string+0x86>
10001c8a:	6823      	ldr	r3, [r4, #0]
10001c8c:	2b00      	cmp	r3, #0
10001c8e:	d0fa      	beq.n	10001c86 <stdio_put_string+0x52>
10001c90:	683b      	ldr	r3, [r7, #0]
10001c92:	b10b      	cbz	r3, 10001c98 <stdio_put_string+0x64>
10001c94:	42a3      	cmp	r3, r4
10001c96:	d1f6      	bne.n	10001c86 <stdio_put_string+0x52>
10001c98:	4620      	mov	r0, r4
10001c9a:	462a      	mov	r2, r5
10001c9c:	4641      	mov	r1, r8
10001c9e:	47b0      	blx	r6
10001ca0:	f1b9 0f00 	cmp.w	r9, #0
10001ca4:	d0ef      	beq.n	10001c86 <stdio_put_string+0x52>
10001ca6:	4620      	mov	r0, r4
10001ca8:	2201      	movs	r2, #1
10001caa:	f10d 0107 	add.w	r1, sp, #7
10001cae:	f88d b007 	strb.w	fp, [sp, #7]
10001cb2:	47b0      	blx	r6
10001cb4:	6924      	ldr	r4, [r4, #16]
10001cb6:	2c00      	cmp	r4, #0
10001cb8:	d1e7      	bne.n	10001c8a <stdio_put_string+0x56>
10001cba:	f1ba 0f00 	cmp.w	sl, #0
10001cbe:	d103      	bne.n	10001cc8 <stdio_put_string+0x94>
10001cc0:	4628      	mov	r0, r5
10001cc2:	b003      	add	sp, #12
10001cc4:	e8bd 8ff0 	ldmia.w	sp!, {r4, r5, r6, r7, r8, r9, sl, fp, pc}
10001cc8:	4804      	ldr	r0, [pc, #16]	; (10001cdc <stdio_put_string+0xa8>)
10001cca:	f002 fb75 	bl	100043b8 <__mutex_exit_veneer>
10001cce:	4628      	mov	r0, r5
10001cd0:	b003      	add	sp, #12
10001cd2:	e8bd 8ff0 	ldmia.w	sp!, {r4, r5, r6, r7, r8, r9, sl, fp, pc}
10001cd6:	bf00      	nop
10001cd8:	000f4240 	.word	0x000f4240
10001cdc:	20000aac 	.word	0x20000aac
10001ce0:	200013ec 	.word	0x200013ec
10001ce4:	10001c15 	.word	0x10001c15
10001ce8:	10001b75 	.word	0x10001b75
10001cec:	200013f4 	.word	0x200013f4

10001cf0 <stdio_get_until>:
10001cf0:	e92d 4ff0 	stmdb	sp!, {r4, r5, r6, r7, r8, r9, sl, fp, lr}
10001cf4:	4607      	mov	r7, r0
10001cf6:	460e      	mov	r6, r1
10001cf8:	4698      	mov	r8, r3
10001cfa:	b083      	sub	sp, #12
10001cfc:	f8df b060 	ldr.w	fp, [pc, #96]	; 10001d60 <stdio_get_until+0x70>
10001d00:	f8df a060 	ldr.w	sl, [pc, #96]	; 10001d64 <stdio_get_until+0x74>
10001d04:	f8df 9060 	ldr.w	r9, [pc, #96]	; 10001d68 <stdio_get_until+0x78>
10001d08:	9201      	str	r2, [sp, #4]
10001d0a:	f8db 4000 	ldr.w	r4, [fp]
10001d0e:	b914      	cbnz	r4, 10001d16 <stdio_get_until+0x26>
10001d10:	e011      	b.n	10001d36 <stdio_get_until+0x46>
10001d12:	6924      	ldr	r4, [r4, #16]
10001d14:	b17c      	cbz	r4, 10001d36 <stdio_get_until+0x46>
10001d16:	f8da 5000 	ldr.w	r5, [sl]
10001d1a:	b10d      	cbz	r5, 10001d20 <stdio_get_until+0x30>
10001d1c:	42a5      	cmp	r5, r4
10001d1e:	d1f8      	bne.n	10001d12 <stdio_get_until+0x22>
10001d20:	68a3      	ldr	r3, [r4, #8]
10001d22:	2b00      	cmp	r3, #0
10001d24:	d0f5      	beq.n	10001d12 <stdio_get_until+0x22>
10001d26:	4631      	mov	r1, r6
10001d28:	4638      	mov	r0, r7
10001d2a:	4798      	blx	r3
10001d2c:	2800      	cmp	r0, #0
10001d2e:	ddf0      	ble.n	10001d12 <stdio_get_until+0x22>
10001d30:	b003      	add	sp, #12
10001d32:	e8bd 8ff0 	ldmia.w	sp!, {r4, r5, r6, r7, r8, r9, sl, fp, pc}
10001d36:	f8d9 3024 	ldr.w	r3, [r9, #36]	; 0x24
10001d3a:	4598      	cmp	r8, r3
10001d3c:	d80b      	bhi.n	10001d56 <stdio_get_until+0x66>
10001d3e:	f8d9 2028 	ldr.w	r2, [r9, #40]	; 0x28
10001d42:	9901      	ldr	r1, [sp, #4]
10001d44:	428a      	cmp	r2, r1
10001d46:	d201      	bcs.n	10001d4c <stdio_get_until+0x5c>
10001d48:	4598      	cmp	r8, r3
10001d4a:	d004      	beq.n	10001d56 <stdio_get_until+0x66>
10001d4c:	f06f 0001 	mvn.w	r0, #1
10001d50:	b003      	add	sp, #12
10001d52:	e8bd 8ff0 	ldmia.w	sp!, {r4, r5, r6, r7, r8, r9, sl, fp, pc}
10001d56:	2001      	movs	r0, #1
10001d58:	2100      	movs	r1, #0
10001d5a:	f7ff fba7 	bl	100014ac <busy_wait_us>
10001d5e:	e7d4      	b.n	10001d0a <stdio_get_until+0x1a>
10001d60:	200013ec 	.word	0x200013ec
10001d64:	200013f4 	.word	0x200013f4
10001d68:	400b0000 	.word	0x400b0000

10001d6c <stdio_set_driver_enabled>:
10001d6c:	4a08      	ldr	r2, [pc, #32]	; (10001d90 <stdio_set_driver_enabled+0x24>)
10001d6e:	6813      	ldr	r3, [r2, #0]
10001d70:	b923      	cbnz	r3, 10001d7c <stdio_set_driver_enabled+0x10>
10001d72:	e00a      	b.n	10001d8a <stdio_set_driver_enabled+0x1e>
10001d74:	f103 0210 	add.w	r2, r3, #16
10001d78:	691b      	ldr	r3, [r3, #16]
10001d7a:	b133      	cbz	r3, 10001d8a <stdio_set_driver_enabled+0x1e>
10001d7c:	4298      	cmp	r0, r3
10001d7e:	d1f9      	bne.n	10001d74 <stdio_set_driver_enabled+0x8>
10001d80:	b929      	cbnz	r1, 10001d8e <stdio_set_driver_enabled+0x22>
10001d82:	6903      	ldr	r3, [r0, #16]
10001d84:	6013      	str	r3, [r2, #0]
10001d86:	6101      	str	r1, [r0, #16]
10001d88:	4770      	bx	lr
10001d8a:	b101      	cbz	r1, 10001d8e <stdio_set_driver_enabled+0x22>
10001d8c:	6010      	str	r0, [r2, #0]
10001d8e:	4770      	bx	lr
10001d90:	200013ec 	.word	0x200013ec

10001d94 <stdio_init_all>:
10001d94:	f000 ba44 	b.w	10002220 <stdio_usb_init>

10001d98 <stdio_getchar_timeout_us>:
10001d98:	b510      	push	{r4, lr}
10001d9a:	b082      	sub	sp, #8
10001d9c:	4604      	mov	r4, r0
10001d9e:	f7ff fb7b 	bl	10001498 <time_us_64>
10001da2:	1822      	adds	r2, r4, r0
10001da4:	f141 0300 	adc.w	r3, r1, #0
10001da8:	2b00      	cmp	r3, #0
10001daa:	bfbc      	itt	lt
10001dac:	f04f 32ff 	movlt.w	r2, #4294967295	; 0xffffffff
10001db0:	f06f 4300 	mvnlt.w	r3, #2147483648	; 0x80000000
10001db4:	2101      	movs	r1, #1
10001db6:	a801      	add	r0, sp, #4
10001db8:	f7ff ff9a 	bl	10001cf0 <stdio_get_until>
10001dbc:	2800      	cmp	r0, #0
10001dbe:	bfa8      	it	ge
10001dc0:	f89d 0004 	ldrbge.w	r0, [sp, #4]
10001dc4:	b002      	add	sp, #8
10001dc6:	bd10      	pop	{r4, pc}

10001dc8 <__wrap_putchar>:
10001dc8:	2301      	movs	r3, #1
10001dca:	b510      	push	{r4, lr}
10001dcc:	4604      	mov	r4, r0
10001dce:	b082      	sub	sp, #8
10001dd0:	2200      	movs	r2, #0
10001dd2:	4619      	mov	r1, r3
10001dd4:	f10d 0007 	add.w	r0, sp, #7
10001dd8:	f88d 4007 	strb.w	r4, [sp, #7]
10001ddc:	f7ff ff2a 	bl	10001c34 <stdio_put_string>
10001de0:	4620      	mov	r0, r4
10001de2:	b002      	add	sp, #8
10001de4:	bd10      	pop	{r4, pc}
10001de6:	bf00      	nop

10001de8 <__wrap_puts>:
10001de8:	b538      	push	{r3, r4, r5, lr}
10001dea:	4604      	mov	r4, r0
10001dec:	f002 faac 	bl	10004348 <strlen>
10001df0:	2301      	movs	r3, #1
10001df2:	4605      	mov	r5, r0
10001df4:	461a      	mov	r2, r3
10001df6:	4620      	mov	r0, r4
10001df8:	4629      	mov	r1, r5
10001dfa:	f7ff ff1b 	bl	10001c34 <stdio_put_string>
10001dfe:	4b05      	ldr	r3, [pc, #20]	; (10001e14 <__wrap_puts+0x2c>)
10001e00:	681c      	ldr	r4, [r3, #0]
10001e02:	b12c      	cbz	r4, 10001e10 <__wrap_puts+0x28>
10001e04:	6863      	ldr	r3, [r4, #4]
10001e06:	b103      	cbz	r3, 10001e0a <__wrap_puts+0x22>
10001e08:	4798      	blx	r3
10001e0a:	6924      	ldr	r4, [r4, #16]
10001e0c:	2c00      	cmp	r4, #0
10001e0e:	d1f9      	bne.n	10001e04 <__wrap_puts+0x1c>
10001e10:	4628      	mov	r0, r5
10001e12:	bd38      	pop	{r3, r4, r5, pc}
10001e14:	200013ec 	.word	0x200013ec

10001e18 <resetd_init>:
10001e18:	4770      	bx	lr
10001e1a:	bf00      	nop

10001e1c <resetd_reset>:
10001e1c:	2200      	movs	r2, #0
10001e1e:	4b01      	ldr	r3, [pc, #4]	; (10001e24 <resetd_reset+0x8>)
10001e20:	701a      	strb	r2, [r3, #0]
10001e22:	4770      	bx	lr
10001e24:	20001855 	.word	0x20001855

10001e28 <resetd_open>:
10001e28:	794b      	ldrb	r3, [r1, #5]
10001e2a:	2bff      	cmp	r3, #255	; 0xff
10001e2c:	d10b      	bne.n	10001e46 <resetd_open+0x1e>
10001e2e:	7988      	ldrb	r0, [r1, #6]
10001e30:	b948      	cbnz	r0, 10001e46 <resetd_open+0x1e>
10001e32:	79cb      	ldrb	r3, [r1, #7]
10001e34:	2b01      	cmp	r3, #1
10001e36:	d107      	bne.n	10001e48 <resetd_open+0x20>
10001e38:	2a08      	cmp	r2, #8
10001e3a:	d905      	bls.n	10001e48 <resetd_open+0x20>
10001e3c:	4b03      	ldr	r3, [pc, #12]	; (10001e4c <resetd_open+0x24>)
10001e3e:	788a      	ldrb	r2, [r1, #2]
10001e40:	2009      	movs	r0, #9
10001e42:	701a      	strb	r2, [r3, #0]
10001e44:	4770      	bx	lr
10001e46:	2000      	movs	r0, #0
10001e48:	4770      	bx	lr
10001e4a:	bf00      	nop
10001e4c:	20001855 	.word	0x20001855

10001e50 <resetd_xfer_cb>:
10001e50:	2001      	movs	r0, #1
10001e52:	4770      	bx	lr

10001e54 <resetd_control_xfer_cb>:
10001e54:	2901      	cmp	r1, #1
10001e56:	d108      	bne.n	10001e6a <resetd_control_xfer_cb+0x16>
10001e58:	b510      	push	{r4, lr}
10001e5a:	4b12      	ldr	r3, [pc, #72]	; (10001ea4 <resetd_control_xfer_cb+0x50>)
10001e5c:	460c      	mov	r4, r1
10001e5e:	781b      	ldrb	r3, [r3, #0]
10001e60:	8891      	ldrh	r1, [r2, #4]
10001e62:	4299      	cmp	r1, r3
10001e64:	d003      	beq.n	10001e6e <resetd_control_xfer_cb+0x1a>
10001e66:	2000      	movs	r0, #0
10001e68:	bd10      	pop	{r4, pc}
10001e6a:	2001      	movs	r0, #1
10001e6c:	4770      	bx	lr
10001e6e:	7853      	ldrb	r3, [r2, #1]
10001e70:	2b01      	cmp	r3, #1
10001e72:	d008      	beq.n	10001e86 <resetd_control_xfer_cb+0x32>
10001e74:	2b02      	cmp	r3, #2
10001e76:	d1f6      	bne.n	10001e66 <resetd_control_xfer_cb+0x12>
10001e78:	2100      	movs	r1, #0
10001e7a:	2264      	movs	r2, #100	; 0x64
10001e7c:	4608      	mov	r0, r1
10001e7e:	f7ff fc77 	bl	10001770 <watchdog_reboot>
10001e82:	4620      	mov	r0, r4
10001e84:	bd10      	pop	{r4, pc}
10001e86:	8851      	ldrh	r1, [r2, #2]
10001e88:	05cb      	lsls	r3, r1, #23
10001e8a:	bf4b      	itete	mi
10001e8c:	0a4a      	lsrmi	r2, r1, #9
10001e8e:	0a4a      	lsrpl	r2, r1, #9
10001e90:	4610      	movmi	r0, r2
10001e92:	f04f 30ff 	movpl.w	r0, #4294967295	; 0xffffffff
10001e96:	f002 0201 	and.w	r2, r2, #1
10001e9a:	f001 017f 	and.w	r1, r1, #127	; 0x7f
10001e9e:	f7ff fcf7 	bl	10001890 <rom_reset_usb_boot_extra>
10001ea2:	bf00      	nop
10001ea4:	20001855 	.word	0x20001855

10001ea8 <tud_descriptor_bos_cb>:
10001ea8:	4800      	ldr	r0, [pc, #0]	; (10001eac <tud_descriptor_bos_cb+0x4>)
10001eaa:	4770      	bx	lr
10001eac:	10004600 	.word	0x10004600

10001eb0 <tud_vendor_control_xfer_cb>:
10001eb0:	2901      	cmp	r1, #1
10001eb2:	d107      	bne.n	10001ec4 <tud_vendor_control_xfer_cb+0x14>
10001eb4:	7853      	ldrb	r3, [r2, #1]
10001eb6:	2b01      	cmp	r3, #1
10001eb8:	d102      	bne.n	10001ec0 <tud_vendor_control_xfer_cb+0x10>
10001eba:	8893      	ldrh	r3, [r2, #4]
10001ebc:	2b07      	cmp	r3, #7
10001ebe:	d003      	beq.n	10001ec8 <tud_vendor_control_xfer_cb+0x18>
10001ec0:	2000      	movs	r0, #0
10001ec2:	4770      	bx	lr
10001ec4:	2001      	movs	r0, #1
10001ec6:	4770      	bx	lr
10001ec8:	4611      	mov	r1, r2
10001eca:	23a6      	movs	r3, #166	; 0xa6
10001ecc:	4a01      	ldr	r2, [pc, #4]	; (10001ed4 <tud_vendor_control_xfer_cb+0x24>)
10001ece:	f001 b9d3 	b.w	10003278 <tud_control_xfer>
10001ed2:	bf00      	nop
10001ed4:	10004624 	.word	0x10004624

10001ed8 <usbd_app_driver_get_cb>:
10001ed8:	4603      	mov	r3, r0
10001eda:	2201      	movs	r2, #1
10001edc:	4801      	ldr	r0, [pc, #4]	; (10001ee4 <usbd_app_driver_get_cb+0xc>)
10001ede:	701a      	strb	r2, [r3, #0]
10001ee0:	4770      	bx	lr
10001ee2:	bf00      	nop
10001ee4:	100045e0 	.word	0x100045e0

10001ee8 <tud_cdc_line_coding_cb>:
10001ee8:	b508      	push	{r3, lr}
10001eea:	680b      	ldr	r3, [r1, #0]
10001eec:	f5b3 6f96 	cmp.w	r3, #1200	; 0x4b0
10001ef0:	d000      	beq.n	10001ef4 <tud_cdc_line_coding_cb+0xc>
10001ef2:	bd08      	pop	{r3, pc}
10001ef4:	2200      	movs	r2, #0
10001ef6:	f04f 30ff 	mov.w	r0, #4294967295	; 0xffffffff
10001efa:	4611      	mov	r1, r2
10001efc:	f7ff fcc8 	bl	10001890 <rom_reset_usb_boot_extra>

10001f00 <stdio_usb_set_chars_available_callback>:
10001f00:	4a02      	ldr	r2, [pc, #8]	; (10001f0c <stdio_usb_set_chars_available_callback+0xc>)
10001f02:	4b03      	ldr	r3, [pc, #12]	; (10001f10 <stdio_usb_set_chars_available_callback+0x10>)
10001f04:	6010      	str	r0, [r2, #0]
10001f06:	6019      	str	r1, [r3, #0]
10001f08:	4770      	bx	lr
10001f0a:	bf00      	nop
10001f0c:	2000138c 	.word	0x2000138c
10001f10:	20001390 	.word	0x20001390

10001f14 <usb_irq>:
10001f14:	4b01      	ldr	r3, [pc, #4]	; (10001f1c <usb_irq+0x8>)
10001f16:	7818      	ldrb	r0, [r3, #0]
10001f18:	f7fe bd24 	b.w	10000964 <irq_set_pending>
10001f1c:	20001856 	.word	0x20001856

10001f20 <stdio_usb_in_chars>:
10001f20:	b538      	push	{r3, r4, r5, lr}
10001f22:	4604      	mov	r4, r0
10001f24:	2000      	movs	r0, #0
10001f26:	460d      	mov	r5, r1
10001f28:	f001 fa98 	bl	1000345c <tud_cdc_n_connected>
10001f2c:	b390      	cbz	r0, 10001f94 <stdio_usb_in_chars+0x74>
10001f2e:	2000      	movs	r0, #0
10001f30:	f001 faaa 	bl	10003488 <tud_cdc_n_available>
10001f34:	b370      	cbz	r0, 10001f94 <stdio_usb_in_chars+0x74>
10001f36:	f7ff faaf 	bl	10001498 <time_us_64>
10001f3a:	4a18      	ldr	r2, [pc, #96]	; (10001f9c <stdio_usb_in_chars+0x7c>)
10001f3c:	1882      	adds	r2, r0, r2
10001f3e:	f141 0300 	adc.w	r3, r1, #0
10001f42:	2b00      	cmp	r3, #0
10001f44:	bfbc      	itt	lt
10001f46:	f04f 32ff 	movlt.w	r2, #4294967295	; 0xffffffff
10001f4a:	f06f 4300 	mvnlt.w	r3, #2147483648	; 0x80000000
10001f4e:	4814      	ldr	r0, [pc, #80]	; (10001fa0 <stdio_usb_in_chars+0x80>)
10001f50:	f002 fa5a 	bl	10004408 <__mutex_try_enter_block_until_veneer>
10001f54:	b1f0      	cbz	r0, 10001f94 <stdio_usb_in_chars+0x74>
10001f56:	2000      	movs	r0, #0
10001f58:	f001 fa80 	bl	1000345c <tud_cdc_n_connected>
10001f5c:	b958      	cbnz	r0, 10001f76 <stdio_usb_in_chars+0x56>
10001f5e:	2100      	movs	r1, #0
10001f60:	f04f 30ff 	mov.w	r0, #4294967295	; 0xffffffff
10001f64:	f000 fca8 	bl	100028b8 <tud_task_ext>
10001f68:	f06f 0402 	mvn.w	r4, #2
10001f6c:	480c      	ldr	r0, [pc, #48]	; (10001fa0 <stdio_usb_in_chars+0x80>)
10001f6e:	f002 fa23 	bl	100043b8 <__mutex_exit_veneer>
10001f72:	4620      	mov	r0, r4
10001f74:	bd38      	pop	{r3, r4, r5, pc}
10001f76:	2000      	movs	r0, #0
10001f78:	f001 fa86 	bl	10003488 <tud_cdc_n_available>
10001f7c:	2800      	cmp	r0, #0
10001f7e:	d0ee      	beq.n	10001f5e <stdio_usb_in_chars+0x3e>
10001f80:	4621      	mov	r1, r4
10001f82:	462a      	mov	r2, r5
10001f84:	2000      	movs	r0, #0
10001f86:	f001 fa8b 	bl	100034a0 <tud_cdc_n_read>
10001f8a:	1e04      	subs	r4, r0, #0
10001f8c:	bf08      	it	eq
10001f8e:	f06f 0402 	mvneq.w	r4, #2
10001f92:	e7eb      	b.n	10001f6c <stdio_usb_in_chars+0x4c>
10001f94:	f06f 0402 	mvn.w	r4, #2
10001f98:	e7eb      	b.n	10001f72 <stdio_usb_in_chars+0x52>
10001f9a:	bf00      	nop
10001f9c:	000f4240 	.word	0x000f4240
10001fa0:	20001838 	.word	0x20001838

10001fa4 <stdio_usb_out_flush>:
10001fa4:	b508      	push	{r3, lr}
10001fa6:	f7ff fa77 	bl	10001498 <time_us_64>
10001faa:	4a0f      	ldr	r2, [pc, #60]	; (10001fe8 <stdio_usb_out_flush+0x44>)
10001fac:	1882      	adds	r2, r0, r2
10001fae:	f141 0300 	adc.w	r3, r1, #0
10001fb2:	2b00      	cmp	r3, #0
10001fb4:	bfbc      	itt	lt
10001fb6:	f04f 32ff 	movlt.w	r2, #4294967295	; 0xffffffff
10001fba:	f06f 4300 	mvnlt.w	r3, #2147483648	; 0x80000000
10001fbe:	480b      	ldr	r0, [pc, #44]	; (10001fec <stdio_usb_out_flush+0x48>)
10001fc0:	f002 fa22 	bl	10004408 <__mutex_try_enter_block_until_veneer>
10001fc4:	b170      	cbz	r0, 10001fe4 <stdio_usb_out_flush+0x40>
10001fc6:	f04f 30ff 	mov.w	r0, #4294967295	; 0xffffffff
10001fca:	2100      	movs	r1, #0
10001fcc:	f000 fc74 	bl	100028b8 <tud_task_ext>
10001fd0:	2000      	movs	r0, #0
10001fd2:	f001 fa83 	bl	100034dc <tud_cdc_n_write_flush>
10001fd6:	2800      	cmp	r0, #0
10001fd8:	d1f5      	bne.n	10001fc6 <stdio_usb_out_flush+0x22>
10001fda:	e8bd 4008 	ldmia.w	sp!, {r3, lr}
10001fde:	4803      	ldr	r0, [pc, #12]	; (10001fec <stdio_usb_out_flush+0x48>)
10001fe0:	f002 b9ea 	b.w	100043b8 <__mutex_exit_veneer>
10001fe4:	bd08      	pop	{r3, pc}
10001fe6:	bf00      	nop
10001fe8:	000f4240 	.word	0x000f4240
10001fec:	20001838 	.word	0x20001838

10001ff0 <stdio_usb_out_chars>:
10001ff0:	e92d 43f8 	stmdb	sp!, {r3, r4, r5, r6, r7, r8, r9, lr}
10001ff4:	4607      	mov	r7, r0
10001ff6:	460e      	mov	r6, r1
10001ff8:	f7ff fa4e 	bl	10001498 <time_us_64>
10001ffc:	4a34      	ldr	r2, [pc, #208]	; (100020d0 <stdio_usb_out_chars+0xe0>)
10001ffe:	1882      	adds	r2, r0, r2
10002000:	f141 0300 	adc.w	r3, r1, #0
10002004:	2b00      	cmp	r3, #0
10002006:	bfbc      	itt	lt
10002008:	f04f 32ff 	movlt.w	r2, #4294967295	; 0xffffffff
1000200c:	f06f 4300 	mvnlt.w	r3, #2147483648	; 0x80000000
10002010:	4830      	ldr	r0, [pc, #192]	; (100020d4 <stdio_usb_out_chars+0xe4>)
10002012:	f002 f9f9 	bl	10004408 <__mutex_try_enter_block_until_veneer>
10002016:	b908      	cbnz	r0, 1000201c <stdio_usb_out_chars+0x2c>
10002018:	e8bd 83f8 	ldmia.w	sp!, {r3, r4, r5, r6, r7, r8, r9, pc}
1000201c:	2000      	movs	r0, #0
1000201e:	f001 fa1d 	bl	1000345c <tud_cdc_n_connected>
10002022:	2800      	cmp	r0, #0
10002024:	d049      	beq.n	100020ba <stdio_usb_out_chars+0xca>
10002026:	2e00      	cmp	r6, #0
10002028:	dd42      	ble.n	100020b0 <stdio_usb_out_chars+0xc0>
1000202a:	2500      	movs	r5, #0
1000202c:	f8df 80a8 	ldr.w	r8, [pc, #168]	; 100020d8 <stdio_usb_out_chars+0xe8>
10002030:	f8df 90a8 	ldr.w	r9, [pc, #168]	; 100020dc <stdio_usb_out_chars+0xec>
10002034:	e013      	b.n	1000205e <stdio_usb_out_chars+0x6e>
10002036:	4622      	mov	r2, r4
10002038:	2000      	movs	r0, #0
1000203a:	f001 fa93 	bl	10003564 <tud_cdc_n_write>
1000203e:	2100      	movs	r1, #0
10002040:	4604      	mov	r4, r0
10002042:	f04f 30ff 	mov.w	r0, #4294967295	; 0xffffffff
10002046:	f000 fc37 	bl	100028b8 <tud_task_ext>
1000204a:	2000      	movs	r0, #0
1000204c:	f001 fa46 	bl	100034dc <tud_cdc_n_write_flush>
10002050:	f7ff fa22 	bl	10001498 <time_us_64>
10002054:	e9c8 0100 	strd	r0, r1, [r8]
10002058:	4425      	add	r5, r4
1000205a:	42ae      	cmp	r6, r5
1000205c:	dd28      	ble.n	100020b0 <stdio_usb_out_chars+0xc0>
1000205e:	2000      	movs	r0, #0
10002060:	f001 faa4 	bl	100035ac <tud_cdc_n_write_available>
10002064:	1b74      	subs	r4, r6, r5
10002066:	4284      	cmp	r4, r0
10002068:	bfa8      	it	ge
1000206a:	4604      	movge	r4, r0
1000206c:	1979      	adds	r1, r7, r5
1000206e:	2c00      	cmp	r4, #0
10002070:	d1e1      	bne.n	10002036 <stdio_usb_out_chars+0x46>
10002072:	4621      	mov	r1, r4
10002074:	f04f 30ff 	mov.w	r0, #4294967295	; 0xffffffff
10002078:	f000 fc1e 	bl	100028b8 <tud_task_ext>
1000207c:	4620      	mov	r0, r4
1000207e:	f001 fa2d 	bl	100034dc <tud_cdc_n_write_flush>
10002082:	4620      	mov	r0, r4
10002084:	f001 f9ea 	bl	1000345c <tud_cdc_n_connected>
10002088:	b190      	cbz	r0, 100020b0 <stdio_usb_out_chars+0xc0>
1000208a:	4620      	mov	r0, r4
1000208c:	f001 fa8e 	bl	100035ac <tud_cdc_n_write_available>
10002090:	2800      	cmp	r0, #0
10002092:	d1e2      	bne.n	1000205a <stdio_usb_out_chars+0x6a>
10002094:	f7ff fa00 	bl	10001498 <time_us_64>
10002098:	f8d8 3000 	ldr.w	r3, [r8]
1000209c:	f8d8 2004 	ldr.w	r2, [r8, #4]
100020a0:	eb13 0309 	adds.w	r3, r3, r9
100020a4:	f142 0200 	adc.w	r2, r2, #0
100020a8:	4283      	cmp	r3, r0
100020aa:	eb72 0301 	sbcs.w	r3, r2, r1
100020ae:	d2d4      	bcs.n	1000205a <stdio_usb_out_chars+0x6a>
100020b0:	4808      	ldr	r0, [pc, #32]	; (100020d4 <stdio_usb_out_chars+0xe4>)
100020b2:	e8bd 43f8 	ldmia.w	sp!, {r3, r4, r5, r6, r7, r8, r9, lr}
100020b6:	f002 b97f 	b.w	100043b8 <__mutex_exit_veneer>
100020ba:	2000      	movs	r0, #0
100020bc:	2100      	movs	r1, #0
100020be:	4b06      	ldr	r3, [pc, #24]	; (100020d8 <stdio_usb_out_chars+0xe8>)
100020c0:	e9c3 0100 	strd	r0, r1, [r3]
100020c4:	e8bd 43f8 	ldmia.w	sp!, {r3, r4, r5, r6, r7, r8, r9, lr}
100020c8:	4802      	ldr	r0, [pc, #8]	; (100020d4 <stdio_usb_out_chars+0xe4>)
100020ca:	f002 b975 	b.w	100043b8 <__mutex_exit_veneer>
100020ce:	bf00      	nop
100020d0:	000f4240 	.word	0x000f4240
100020d4:	20001838 	.word	0x20001838
100020d8:	20000c38 	.word	0x20000c38
100020dc:	0007a120 	.word	0x0007a120

100020e0 <low_priority_worker_irq>:
100020e0:	b530      	push	{r4, r5, lr}
100020e2:	2100      	movs	r1, #0
100020e4:	b085      	sub	sp, #20
100020e6:	482a      	ldr	r0, [pc, #168]	; (10002190 <low_priority_worker_irq+0xb0>)
100020e8:	f002 f97e 	bl	100043e8 <__mutex_try_enter_veneer>
100020ec:	b9f0      	cbnz	r0, 1000212c <low_priority_worker_irq+0x4c>
100020ee:	4b29      	ldr	r3, [pc, #164]	; (10002194 <low_priority_worker_irq+0xb4>)
100020f0:	681a      	ldr	r2, [r3, #0]
100020f2:	b1ca      	cbz	r2, 10002128 <low_priority_worker_irq+0x48>
100020f4:	f3ef 8110 	mrs	r1, PRIMASK
100020f8:	b672      	cpsid	i
100020fa:	e8d2 5fcf 	ldaexb	r5, [r2]
100020fe:	2401      	movs	r4, #1
10002100:	2d00      	cmp	r5, #0
10002102:	d1fa      	bne.n	100020fa <low_priority_worker_irq+0x1a>
10002104:	e8c2 4f45 	strexb	r5, r4, [r2]
10002108:	2d00      	cmp	r5, #0
1000210a:	d1f6      	bne.n	100020fa <low_priority_worker_irq+0x1a>
1000210c:	f3bf 8f5f 	dmb	sy
10002110:	4c21      	ldr	r4, [pc, #132]	; (10002198 <low_priority_worker_irq+0xb8>)
10002112:	681d      	ldr	r5, [r3, #0]
10002114:	7822      	ldrb	r2, [r4, #0]
10002116:	6059      	str	r1, [r3, #4]
10002118:	b2d3      	uxtb	r3, r2
1000211a:	2201      	movs	r2, #1
1000211c:	7022      	strb	r2, [r4, #0]
1000211e:	e8c5 0f8f 	stlb	r0, [r5]
10002122:	f381 8810 	msr	PRIMASK, r1
10002126:	b1cb      	cbz	r3, 1000215c <low_priority_worker_irq+0x7c>
10002128:	b005      	add	sp, #20
1000212a:	bd30      	pop	{r4, r5, pc}
1000212c:	2100      	movs	r1, #0
1000212e:	f04f 30ff 	mov.w	r0, #4294967295	; 0xffffffff
10002132:	f000 fbc1 	bl	100028b8 <tud_task_ext>
10002136:	2000      	movs	r0, #0
10002138:	f001 f9a6 	bl	10003488 <tud_cdc_n_available>
1000213c:	4604      	mov	r4, r0
1000213e:	4814      	ldr	r0, [pc, #80]	; (10002190 <low_priority_worker_irq+0xb0>)
10002140:	f002 f93a 	bl	100043b8 <__mutex_exit_veneer>
10002144:	2c00      	cmp	r4, #0
10002146:	d0ef      	beq.n	10002128 <low_priority_worker_irq+0x48>
10002148:	4b14      	ldr	r3, [pc, #80]	; (1000219c <low_priority_worker_irq+0xbc>)
1000214a:	681b      	ldr	r3, [r3, #0]
1000214c:	2b00      	cmp	r3, #0
1000214e:	d0eb      	beq.n	10002128 <low_priority_worker_irq+0x48>
10002150:	4a13      	ldr	r2, [pc, #76]	; (100021a0 <low_priority_worker_irq+0xc0>)
10002152:	6810      	ldr	r0, [r2, #0]
10002154:	b005      	add	sp, #20
10002156:	e8bd 4030 	ldmia.w	sp!, {r4, r5, lr}
1000215a:	4718      	bx	r3
1000215c:	f7fe ffec 	bl	10001138 <alarm_pool_get_default>
10002160:	4604      	mov	r4, r0
10002162:	f7ff f999 	bl	10001498 <time_us_64>
10002166:	f510 727a 	adds.w	r2, r0, #1000	; 0x3e8
1000216a:	f141 0300 	adc.w	r3, r1, #0
1000216e:	2501      	movs	r5, #1
10002170:	2100      	movs	r1, #0
10002172:	4620      	mov	r0, r4
10002174:	4c0b      	ldr	r4, [pc, #44]	; (100021a4 <low_priority_worker_irq+0xc4>)
10002176:	2b00      	cmp	r3, #0
10002178:	bfbc      	itt	lt
1000217a:	f04f 32ff 	movlt.w	r2, #4294967295	; 0xffffffff
1000217e:	f06f 4300 	mvnlt.w	r3, #2147483648	; 0x80000000
10002182:	e9cd 1501 	strd	r1, r5, [sp, #4]
10002186:	9400      	str	r4, [sp, #0]
10002188:	f7ff f83c 	bl	10001204 <alarm_pool_add_alarm_at>
1000218c:	b005      	add	sp, #20
1000218e:	bd30      	pop	{r4, r5, pc}
10002190:	20001838 	.word	0x20001838
10002194:	20001804 	.word	0x20001804
10002198:	20001857 	.word	0x20001857
1000219c:	2000138c 	.word	0x2000138c
100021a0:	20001390 	.word	0x20001390
100021a4:	100021a9 	.word	0x100021a9

100021a8 <timer_task>:
100021a8:	4b1a      	ldr	r3, [pc, #104]	; (10002214 <timer_task+0x6c>)
100021aa:	b570      	push	{r4, r5, r6, lr}
100021ac:	681a      	ldr	r2, [r3, #0]
100021ae:	b312      	cbz	r2, 100021f6 <timer_task+0x4e>
100021b0:	f3ef 8110 	mrs	r1, PRIMASK
100021b4:	b672      	cpsid	i
100021b6:	e8d2 4fcf 	ldaexb	r4, [r2]
100021ba:	2001      	movs	r0, #1
100021bc:	2c00      	cmp	r4, #0
100021be:	d1fa      	bne.n	100021b6 <timer_task+0xe>
100021c0:	e8c2 0f44 	strexb	r4, r0, [r2]
100021c4:	2c00      	cmp	r4, #0
100021c6:	d1f6      	bne.n	100021b6 <timer_task+0xe>
100021c8:	f3bf 8f5f 	dmb	sy
100021cc:	2200      	movs	r2, #0
100021ce:	4c12      	ldr	r4, [pc, #72]	; (10002218 <timer_task+0x70>)
100021d0:	6818      	ldr	r0, [r3, #0]
100021d2:	6059      	str	r1, [r3, #4]
100021d4:	7022      	strb	r2, [r4, #0]
100021d6:	e8c0 2f8f 	stlb	r2, [r0]
100021da:	f381 8810 	msr	PRIMASK, r1
100021de:	4e0f      	ldr	r6, [pc, #60]	; (1000221c <timer_task+0x74>)
100021e0:	2400      	movs	r4, #0
100021e2:	7830      	ldrb	r0, [r6, #0]
100021e4:	2500      	movs	r5, #0
100021e6:	f7fe fbad 	bl	10000944 <irq_is_enabled>
100021ea:	b968      	cbnz	r0, 10002208 <timer_task+0x60>
100021ec:	2400      	movs	r4, #0
100021ee:	2500      	movs	r5, #0
100021f0:	4620      	mov	r0, r4
100021f2:	4629      	mov	r1, r5
100021f4:	bd70      	pop	{r4, r5, r6, pc}
100021f6:	4e09      	ldr	r6, [pc, #36]	; (1000221c <timer_task+0x74>)
100021f8:	f44f 747a 	mov.w	r4, #1000	; 0x3e8
100021fc:	7830      	ldrb	r0, [r6, #0]
100021fe:	2500      	movs	r5, #0
10002200:	f7fe fba0 	bl	10000944 <irq_is_enabled>
10002204:	2800      	cmp	r0, #0
10002206:	d0f1      	beq.n	100021ec <timer_task+0x44>
10002208:	7830      	ldrb	r0, [r6, #0]
1000220a:	f7fe fbab 	bl	10000964 <irq_set_pending>
1000220e:	4620      	mov	r0, r4
10002210:	4629      	mov	r1, r5
10002212:	bd70      	pop	{r4, r5, r6, pc}
10002214:	20001804 	.word	0x20001804
10002218:	20001857 	.word	0x20001857
1000221c:	20001856 	.word	0x20001856

10002220 <stdio_usb_init>:
10002220:	f04f 4350 	mov.w	r3, #3489660928	; 0xd0000000
10002224:	b530      	push	{r4, r5, lr}
10002226:	b085      	sub	sp, #20
10002228:	681c      	ldr	r4, [r3, #0]
1000222a:	f7fe ff85 	bl	10001138 <alarm_pool_get_default>
1000222e:	f7ff f849 	bl	100012c4 <alarm_pool_core_num>
10002232:	42a0      	cmp	r0, r4
10002234:	d002      	beq.n	1000223c <stdio_usb_init+0x1c>
10002236:	2000      	movs	r0, #0
10002238:	b005      	add	sp, #20
1000223a:	bd30      	pop	{r4, r5, pc}
1000223c:	4b26      	ldr	r3, [pc, #152]	; (100022d8 <stdio_usb_init+0xb8>)
1000223e:	781b      	ldrb	r3, [r3, #0]
10002240:	f001 fcbc 	bl	10003bbc <tusb_init>
10002244:	4825      	ldr	r0, [pc, #148]	; (100022dc <stdio_usb_init+0xbc>)
10002246:	6803      	ldr	r3, [r0, #0]
10002248:	2b00      	cmp	r3, #0
1000224a:	d042      	beq.n	100022d2 <stdio_usb_init+0xb2>
1000224c:	2001      	movs	r0, #1
1000224e:	f7fe fd21 	bl	10000c94 <user_irq_claim_unused>
10002252:	4603      	mov	r3, r0
10002254:	4c22      	ldr	r4, [pc, #136]	; (100022e0 <stdio_usb_init+0xc0>)
10002256:	4923      	ldr	r1, [pc, #140]	; (100022e4 <stdio_usb_init+0xc4>)
10002258:	b2c0      	uxtb	r0, r0
1000225a:	7023      	strb	r3, [r4, #0]
1000225c:	f7fe fba2 	bl	100009a4 <irq_set_exclusive_handler>
10002260:	7820      	ldrb	r0, [r4, #0]
10002262:	2101      	movs	r1, #1
10002264:	f7fe fb58 	bl	10000918 <irq_set_enabled>
10002268:	200e      	movs	r0, #14
1000226a:	f7fe fb89 	bl	10000980 <irq_has_shared_handler>
1000226e:	bb18      	cbnz	r0, 100022b8 <stdio_usb_init+0x98>
10002270:	4b1d      	ldr	r3, [pc, #116]	; (100022e8 <stdio_usb_init+0xc8>)
10002272:	2501      	movs	r5, #1
10002274:	e9c3 0000 	strd	r0, r0, [r3]
10002278:	f7fe ff5e 	bl	10001138 <alarm_pool_get_default>
1000227c:	4604      	mov	r4, r0
1000227e:	f7ff f90b 	bl	10001498 <time_us_64>
10002282:	f510 727a 	adds.w	r2, r0, #1000	; 0x3e8
10002286:	f141 0300 	adc.w	r3, r1, #0
1000228a:	2100      	movs	r1, #0
1000228c:	4620      	mov	r0, r4
1000228e:	4c17      	ldr	r4, [pc, #92]	; (100022ec <stdio_usb_init+0xcc>)
10002290:	2b00      	cmp	r3, #0
10002292:	bfbc      	itt	lt
10002294:	f04f 32ff 	movlt.w	r2, #4294967295	; 0xffffffff
10002298:	f06f 4300 	mvnlt.w	r3, #2147483648	; 0x80000000
1000229c:	e9cd 1501 	strd	r1, r5, [sp, #4]
100022a0:	9400      	str	r4, [sp, #0]
100022a2:	f7fe ffaf 	bl	10001204 <alarm_pool_add_alarm_at>
100022a6:	2800      	cmp	r0, #0
100022a8:	dbc5      	blt.n	10002236 <stdio_usb_init+0x16>
100022aa:	2101      	movs	r1, #1
100022ac:	4810      	ldr	r0, [pc, #64]	; (100022f0 <stdio_usb_init+0xd0>)
100022ae:	f7ff fd5d 	bl	10001d6c <stdio_set_driver_enabled>
100022b2:	2001      	movs	r0, #1
100022b4:	b005      	add	sp, #20
100022b6:	bd30      	pop	{r4, r5, pc}
100022b8:	2001      	movs	r0, #1
100022ba:	f7fe faa3 	bl	10000804 <spin_lock_claim_unused>
100022be:	4601      	mov	r1, r0
100022c0:	4809      	ldr	r0, [pc, #36]	; (100022e8 <stdio_usb_init+0xc8>)
100022c2:	f7fe fd47 	bl	10000d54 <critical_section_init_with_lock_num>
100022c6:	2200      	movs	r2, #0
100022c8:	200e      	movs	r0, #14
100022ca:	490a      	ldr	r1, [pc, #40]	; (100022f4 <stdio_usb_init+0xd4>)
100022cc:	f7fe fb9a 	bl	10000a04 <irq_add_shared_handler>
100022d0:	e7eb      	b.n	100022aa <stdio_usb_init+0x8a>
100022d2:	f7fe fd23 	bl	10000d1c <mutex_init>
100022d6:	e7b9      	b.n	1000224c <stdio_usb_init+0x2c>
100022d8:	10004850 	.word	0x10004850
100022dc:	20001838 	.word	0x20001838
100022e0:	20001856 	.word	0x20001856
100022e4:	100020e1 	.word	0x100020e1
100022e8:	20001804 	.word	0x20001804
100022ec:	100021a9 	.word	0x100021a9
100022f0:	20000a6c 	.word	0x20000a6c
100022f4:	10001f15 	.word	0x10001f15

100022f8 <tud_descriptor_device_cb>:
100022f8:	4800      	ldr	r0, [pc, #0]	; (100022fc <tud_descriptor_device_cb+0x4>)
100022fa:	4770      	bx	lr
100022fc:	1000476c 	.word	0x1000476c

10002300 <tud_descriptor_configuration_cb>:
10002300:	4800      	ldr	r0, [pc, #0]	; (10002304 <tud_descriptor_configuration_cb+0x4>)
10002302:	4770      	bx	lr
10002304:	10004718 	.word	0x10004718

10002308 <tud_descriptor_string_cb>:
10002308:	b538      	push	{r3, r4, r5, lr}
1000230a:	4b1a      	ldr	r3, [pc, #104]	; (10002374 <tud_descriptor_string_cb+0x6c>)
1000230c:	4604      	mov	r4, r0
1000230e:	781a      	ldrb	r2, [r3, #0]
10002310:	b32a      	cbz	r2, 1000235e <tud_descriptor_string_cb+0x56>
10002312:	b944      	cbnz	r4, 10002326 <tud_descriptor_string_cb+0x1e>
10002314:	f240 4209 	movw	r2, #1033	; 0x409
10002318:	f44f 7341 	mov.w	r3, #772	; 0x304
1000231c:	4d16      	ldr	r5, [pc, #88]	; (10002378 <tud_descriptor_string_cb+0x70>)
1000231e:	806a      	strh	r2, [r5, #2]
10002320:	4815      	ldr	r0, [pc, #84]	; (10002378 <tud_descriptor_string_cb+0x70>)
10002322:	802b      	strh	r3, [r5, #0]
10002324:	bd38      	pop	{r3, r4, r5, pc}
10002326:	2c05      	cmp	r4, #5
10002328:	d821      	bhi.n	1000236e <tud_descriptor_string_cb+0x66>
1000232a:	4b14      	ldr	r3, [pc, #80]	; (1000237c <tud_descriptor_string_cb+0x74>)
1000232c:	4d12      	ldr	r5, [pc, #72]	; (10002378 <tud_descriptor_string_cb+0x70>)
1000232e:	f853 1024 	ldr.w	r1, [r3, r4, lsl #2]
10002332:	4628      	mov	r0, r5
10002334:	2300      	movs	r3, #0
10002336:	3901      	subs	r1, #1
10002338:	e003      	b.n	10002342 <tud_descriptor_string_cb+0x3a>
1000233a:	2b13      	cmp	r3, #19
1000233c:	f820 2f02 	strh.w	r2, [r0, #2]!
10002340:	d012      	beq.n	10002368 <tud_descriptor_string_cb+0x60>
10002342:	f811 2f01 	ldrb.w	r2, [r1, #1]!
10002346:	fa5f fc83 	uxtb.w	ip, r3
1000234a:	3301      	adds	r3, #1
1000234c:	2a00      	cmp	r2, #0
1000234e:	d1f4      	bne.n	1000233a <tud_descriptor_string_cb+0x32>
10002350:	f10c 0301 	add.w	r3, ip, #1
10002354:	b2db      	uxtb	r3, r3
10002356:	005b      	lsls	r3, r3, #1
10002358:	f443 7340 	orr.w	r3, r3, #768	; 0x300
1000235c:	e7e0      	b.n	10002320 <tud_descriptor_string_cb+0x18>
1000235e:	2111      	movs	r1, #17
10002360:	4618      	mov	r0, r3
10002362:	f000 f829 	bl	100023b8 <pico_get_unique_board_id_string>
10002366:	e7d4      	b.n	10002312 <tud_descriptor_string_cb+0xa>
10002368:	f44f 734a 	mov.w	r3, #808	; 0x328
1000236c:	e7d8      	b.n	10002320 <tud_descriptor_string_cb+0x18>
1000236e:	2000      	movs	r0, #0
10002370:	bd38      	pop	{r3, r4, r5, pc}
10002372:	bf00      	nop
10002374:	20001840 	.word	0x20001840
10002378:	200013c4 	.word	0x200013c4
1000237c:	10004780 	.word	0x10004780

10002380 <_retrieve_unique_id_on_boot>:
10002380:	b500      	push	{lr}
10002382:	f245 3047 	movw	r0, #21319	; 0x5347
10002386:	b08b      	sub	sp, #44	; 0x2c
10002388:	f7ff fa68 	bl	1000185c <rom_func_lookup>
1000238c:	2201      	movs	r2, #1
1000238e:	4603      	mov	r3, r0
10002390:	2109      	movs	r1, #9
10002392:	a801      	add	r0, sp, #4
10002394:	4798      	blx	r3
10002396:	4a07      	ldr	r2, [pc, #28]	; (100023b4 <_retrieve_unique_id_on_boot+0x34>)
10002398:	f10d 0313 	add.w	r3, sp, #19
1000239c:	f10d 000b 	add.w	r0, sp, #11
100023a0:	f813 1901 	ldrb.w	r1, [r3], #-1
100023a4:	4283      	cmp	r3, r0
100023a6:	f802 1f01 	strb.w	r1, [r2, #1]!
100023aa:	d1f9      	bne.n	100023a0 <_retrieve_unique_id_on_boot+0x20>
100023ac:	b00b      	add	sp, #44	; 0x2c
100023ae:	f85d fb04 	ldr.w	pc, [sp], #4
100023b2:	bf00      	nop
100023b4:	2000182b 	.word	0x2000182b

100023b8 <pico_get_unique_board_id_string>:
100023b8:	3901      	subs	r1, #1
100023ba:	d024      	beq.n	10002406 <pico_get_unique_board_id_string+0x4e>
100023bc:	2200      	movs	r2, #0
100023be:	b410      	push	{r4}
100023c0:	4c12      	ldr	r4, [pc, #72]	; (1000240c <pico_get_unique_board_id_string+0x54>)
100023c2:	f100 3cff 	add.w	ip, r0, #4294967295	; 0xffffffff
100023c6:	0853      	lsrs	r3, r2, #1
100023c8:	5ce3      	ldrb	r3, [r4, r3]
100023ca:	f012 0f01 	tst.w	r2, #1
100023ce:	bf08      	it	eq
100023d0:	111b      	asreq	r3, r3, #4
100023d2:	f003 030f 	and.w	r3, r3, #15
100023d6:	2b09      	cmp	r3, #9
100023d8:	f102 0201 	add.w	r2, r2, #1
100023dc:	bfd4      	ite	le
100023de:	3330      	addle	r3, #48	; 0x30
100023e0:	3337      	addgt	r3, #55	; 0x37
100023e2:	428a      	cmp	r2, r1
100023e4:	f80c 3f01 	strb.w	r3, [ip, #1]!
100023e8:	d007      	beq.n	100023fa <pico_get_unique_board_id_string+0x42>
100023ea:	2a10      	cmp	r2, #16
100023ec:	d1eb      	bne.n	100023c6 <pico_get_unique_board_id_string+0xe>
100023ee:	2300      	movs	r3, #0
100023f0:	3010      	adds	r0, #16
100023f2:	f85d 4b04 	ldr.w	r4, [sp], #4
100023f6:	7003      	strb	r3, [r0, #0]
100023f8:	4770      	bx	lr
100023fa:	2300      	movs	r3, #0
100023fc:	4410      	add	r0, r2
100023fe:	f85d 4b04 	ldr.w	r4, [sp], #4
10002402:	7003      	strb	r3, [r0, #0]
10002404:	4770      	bx	lr
10002406:	2300      	movs	r3, #0
10002408:	7003      	strb	r3, [r0, #0]
1000240a:	4770      	bx	lr
1000240c:	2000182c 	.word	0x2000182c

10002410 <dcd_init>:
10002410:	b5f8      	push	{r3, r4, r5, r6, r7, lr}
10002412:	f000 f931 	bl	10002678 <rp2040_usb_init>
10002416:	230c      	movs	r3, #12
10002418:	2640      	movs	r6, #64	; 0x40
1000241a:	4d1a      	ldr	r5, [pc, #104]	; (10002484 <dcd_init+0x74>)
1000241c:	4c1a      	ldr	r4, [pc, #104]	; (10002488 <dcd_init+0x78>)
1000241e:	67ab      	str	r3, [r5, #120]	; 0x78
10002420:	22ff      	movs	r2, #255	; 0xff
10002422:	200e      	movs	r0, #14
10002424:	4919      	ldr	r1, [pc, #100]	; (1000248c <dcd_init+0x7c>)
10002426:	f7fe faed 	bl	10000a04 <irq_add_shared_handler>
1000242a:	4632      	mov	r2, r6
1000242c:	2100      	movs	r1, #0
1000242e:	4620      	mov	r0, r4
10002430:	f001 ff38 	bl	100042a4 <memset>
10002434:	4b16      	ldr	r3, [pc, #88]	; (10002490 <dcd_init+0x80>)
10002436:	2180      	movs	r1, #128	; 0x80
10002438:	62a3      	str	r3, [r4, #40]	; 0x28
1000243a:	2701      	movs	r7, #1
1000243c:	2300      	movs	r3, #0
1000243e:	4a15      	ldr	r2, [pc, #84]	; (10002494 <dcd_init+0x84>)
10002440:	8461      	strh	r1, [r4, #34]	; 0x22
10002442:	60a2      	str	r2, [r4, #8]
10002444:	3a84      	subs	r2, #132	; 0x84
10002446:	7067      	strb	r7, [r4, #1]
10002448:	8326      	strh	r6, [r4, #24]
1000244a:	8726      	strh	r6, [r4, #56]	; 0x38
1000244c:	f8c2 3084 	str.w	r3, [r2, #132]	; 0x84
10002450:	f8c2 3080 	str.w	r3, [r2, #128]	; 0x80
10002454:	6063      	str	r3, [r4, #4]
10002456:	f884 3021 	strb.w	r3, [r4, #33]	; 0x21
1000245a:	f884 303b 	strb.w	r3, [r4, #59]	; 0x3b
1000245e:	6263      	str	r3, [r4, #36]	; 0x24
10002460:	4b0d      	ldr	r3, [pc, #52]	; (10002498 <dcd_init+0x88>)
10002462:	60e3      	str	r3, [r4, #12]
10002464:	62e3      	str	r3, [r4, #44]	; 0x2c
10002466:	f001 ffaf 	bl	100043c8 <__reset_non_control_endpoints_veneer>
1000246a:	f04f 5000 	mov.w	r0, #536870912	; 0x20000000
1000246e:	f44f 3280 	mov.w	r2, #65536	; 0x10000
10002472:	490a      	ldr	r1, [pc, #40]	; (1000249c <dcd_init+0x8c>)
10002474:	4b0a      	ldr	r3, [pc, #40]	; (100024a0 <dcd_init+0x90>)
10002476:	642f      	str	r7, [r5, #64]	; 0x40
10002478:	64e8      	str	r0, [r5, #76]	; 0x4c
1000247a:	f8c5 1090 	str.w	r1, [r5, #144]	; 0x90
1000247e:	64da      	str	r2, [r3, #76]	; 0x4c
10002480:	bdf8      	pop	{r3, r4, r5, r6, r7, pc}
10002482:	bf00      	nop
10002484:	50110000 	.word	0x50110000
10002488:	200013f8 	.word	0x200013f8
1000248c:	20000381 	.word	0x20000381
10002490:	50100080 	.word	0x50100080
10002494:	50100084 	.word	0x50100084
10002498:	50100100 	.word	0x50100100
1000249c:	0001d010 	.word	0x0001d010
100024a0:	50112000 	.word	0x50112000

100024a4 <dcd_int_enable>:
100024a4:	2101      	movs	r1, #1
100024a6:	200e      	movs	r0, #14
100024a8:	f7fe ba36 	b.w	10000918 <irq_set_enabled>

100024ac <dcd_set_address>:
100024ac:	2200      	movs	r2, #0
100024ae:	4802      	ldr	r0, [pc, #8]	; (100024b8 <dcd_set_address+0xc>)
100024b0:	4611      	mov	r1, r2
100024b2:	f000 b901 	b.w	100026b8 <hw_endpoint_xfer_start>
100024b6:	bf00      	nop
100024b8:	20001418 	.word	0x20001418

100024bc <dcd_sof_enable>:
100024bc:	4b04      	ldr	r3, [pc, #16]	; (100024d0 <dcd_sof_enable+0x14>)
100024be:	7019      	strb	r1, [r3, #0]
100024c0:	b121      	cbz	r1, 100024cc <dcd_sof_enable+0x10>
100024c2:	f44f 3200 	mov.w	r2, #131072	; 0x20000
100024c6:	4b03      	ldr	r3, [pc, #12]	; (100024d4 <dcd_sof_enable+0x18>)
100024c8:	f8c3 2090 	str.w	r2, [r3, #144]	; 0x90
100024cc:	4770      	bx	lr
100024ce:	bf00      	nop
100024d0:	20001852 	.word	0x20001852
100024d4:	50112000 	.word	0x50112000

100024d8 <dcd_edpt0_status_complete>:
100024d8:	780b      	ldrb	r3, [r1, #0]
100024da:	065b      	lsls	r3, r3, #25
100024dc:	d102      	bne.n	100024e4 <dcd_edpt0_status_complete+0xc>
100024de:	784b      	ldrb	r3, [r1, #1]
100024e0:	2b05      	cmp	r3, #5
100024e2:	d000      	beq.n	100024e6 <dcd_edpt0_status_complete+0xe>
100024e4:	4770      	bx	lr
100024e6:	884b      	ldrh	r3, [r1, #2]
100024e8:	4a01      	ldr	r2, [pc, #4]	; (100024f0 <dcd_edpt0_status_complete+0x18>)
100024ea:	b2db      	uxtb	r3, r3
100024ec:	6013      	str	r3, [r2, #0]
100024ee:	4770      	bx	lr
100024f0:	50110000 	.word	0x50110000

100024f4 <dcd_edpt_open>:
100024f4:	f04f 0c00 	mov.w	ip, #0
100024f8:	e92d 41f0 	stmdb	sp!, {r4, r5, r6, r7, r8, lr}
100024fc:	7888      	ldrb	r0, [r1, #2]
100024fe:	78cf      	ldrb	r7, [r1, #3]
10002500:	888b      	ldrh	r3, [r1, #4]
10002502:	f000 017f 	and.w	r1, r0, #127	; 0x7f
10002506:	4d34      	ldr	r5, [pc, #208]	; (100025d8 <dcd_edpt_open+0xe4>)
10002508:	004e      	lsls	r6, r1, #1
1000250a:	eb06 12d0 	add.w	r2, r6, r0, lsr #7
1000250e:	eb05 1242 	add.w	r2, r5, r2, lsl #5
10002512:	09c4      	lsrs	r4, r0, #7
10002514:	7090      	strb	r0, [r2, #2]
10002516:	f3c7 0001 	ubfx	r0, r7, #0, #2
1000251a:	f3c3 030a 	ubfx	r3, r3, #0, #11
1000251e:	76d0      	strb	r0, [r2, #27]
10002520:	f084 0001 	eor.w	r0, r4, #1
10002524:	f882 c003 	strb.w	ip, [r2, #3]
10002528:	8313      	strh	r3, [r2, #24]
1000252a:	f007 0703 	and.w	r7, r7, #3
1000252e:	7050      	strb	r0, [r2, #1]
10002530:	bb94      	cbnz	r4, 10002598 <dcd_edpt_open+0xa4>
10002532:	2204      	movs	r2, #4
10002534:	4829      	ldr	r0, [pc, #164]	; (100025dc <dcd_edpt_open+0xe8>)
10002536:	eb02 02c1 	add.w	r2, r2, r1, lsl #3
1000253a:	eb05 1e81 	add.w	lr, r5, r1, lsl #6
1000253e:	eb02 0800 	add.w	r8, r2, r0
10002542:	f8ce 8008 	str.w	r8, [lr, #8]
10002546:	f842 c000 	str.w	ip, [r2, r0]
1000254a:	b381      	cbz	r1, 100025ae <dcd_edpt_open+0xba>
1000254c:	4a24      	ldr	r2, [pc, #144]	; (100025e0 <dcd_edpt_open+0xec>)
1000254e:	00c9      	lsls	r1, r1, #3
10002550:	440a      	add	r2, r1
10002552:	f8ce 2004 	str.w	r2, [lr, #4]
10002556:	4823      	ldr	r0, [pc, #140]	; (100025e4 <dcd_edpt_open+0xf0>)
10002558:	333f      	adds	r3, #63	; 0x3f
1000255a:	6801      	ldr	r1, [r0, #0]
1000255c:	f023 033f 	bic.w	r3, r3, #63	; 0x3f
10002560:	2f02      	cmp	r7, #2
10002562:	4a21      	ldr	r2, [pc, #132]	; (100025e8 <dcd_edpt_open+0xf4>)
10002564:	bf08      	it	eq
10002566:	005b      	lsleq	r3, r3, #1
10002568:	440b      	add	r3, r1
1000256a:	6003      	str	r3, [r0, #0]
1000256c:	ea81 0802 	eor.w	r8, r1, r2
10002570:	4053      	eors	r3, r2
10002572:	1932      	adds	r2, r6, r4
10002574:	eb05 1242 	add.w	r2, r5, r2, lsl #5
10002578:	f5b3 5f80 	cmp.w	r3, #4096	; 0x1000
1000257c:	60d1      	str	r1, [r2, #12]
1000257e:	d827      	bhi.n	100025d0 <dcd_edpt_open+0xdc>
10002580:	4434      	add	r4, r6
10002582:	eb05 1544 	add.w	r5, r5, r4, lsl #5
10002586:	686b      	ldr	r3, [r5, #4]
10002588:	ea48 6287 	orr.w	r2, r8, r7, lsl #26
1000258c:	f042 4200 	orr.w	r2, r2, #2147483648	; 0x80000000
10002590:	2001      	movs	r0, #1
10002592:	601a      	str	r2, [r3, #0]
10002594:	e8bd 81f0 	ldmia.w	sp!, {r4, r5, r6, r7, r8, pc}
10002598:	4810      	ldr	r0, [pc, #64]	; (100025dc <dcd_edpt_open+0xe8>)
1000259a:	b20a      	sxth	r2, r1
1000259c:	eb00 08c1 	add.w	r8, r0, r1, lsl #3
100025a0:	eb05 1e81 	add.w	lr, r5, r1, lsl #6
100025a4:	f8ce 8028 	str.w	r8, [lr, #40]	; 0x28
100025a8:	f840 c032 	str.w	ip, [r0, r2, lsl #3]
100025ac:	b941      	cbnz	r1, 100025c0 <dcd_edpt_open+0xcc>
100025ae:	2300      	movs	r3, #0
100025b0:	4a0e      	ldr	r2, [pc, #56]	; (100025ec <dcd_edpt_open+0xf8>)
100025b2:	eb05 1444 	add.w	r4, r5, r4, lsl #5
100025b6:	2001      	movs	r0, #1
100025b8:	60e2      	str	r2, [r4, #12]
100025ba:	6063      	str	r3, [r4, #4]
100025bc:	e8bd 81f0 	ldmia.w	sp!, {r4, r5, r6, r7, r8, pc}
100025c0:	00c9      	lsls	r1, r1, #3
100025c2:	f101 41a0 	add.w	r1, r1, #1342177280	; 0x50000000
100025c6:	f501 1180 	add.w	r1, r1, #1048576	; 0x100000
100025ca:	f8ce 1024 	str.w	r1, [lr, #36]	; 0x24
100025ce:	e7c2      	b.n	10002556 <dcd_edpt_open+0x62>
100025d0:	f7ff f99c 	bl	1000190c <hard_assertion_failure>
100025d4:	e7d4      	b.n	10002580 <dcd_edpt_open+0x8c>
100025d6:	bf00      	nop
100025d8:	200013f8 	.word	0x200013f8
100025dc:	50100080 	.word	0x50100080
100025e0:	50100004 	.word	0x50100004
100025e4:	20001800 	.word	0x20001800
100025e8:	50100000 	.word	0x50100000
100025ec:	50100100 	.word	0x50100100

100025f0 <dcd_edpt_close_all>:
100025f0:	f001 beea 	b.w	100043c8 <__reset_non_control_endpoints_veneer>

100025f4 <dcd_edpt_xfer>:
100025f4:	468c      	mov	ip, r1
100025f6:	b508      	push	{r3, lr}
100025f8:	4611      	mov	r1, r2
100025fa:	4807      	ldr	r0, [pc, #28]	; (10002618 <dcd_edpt_xfer+0x24>)
100025fc:	461a      	mov	r2, r3
100025fe:	f00c 037f 	and.w	r3, ip, #127	; 0x7f
10002602:	ea4f 1cdc 	mov.w	ip, ip, lsr #7
10002606:	eb0c 0c43 	add.w	ip, ip, r3, lsl #1
1000260a:	eb00 104c 	add.w	r0, r0, ip, lsl #5
1000260e:	f000 f853 	bl	100026b8 <hw_endpoint_xfer_start>
10002612:	2001      	movs	r0, #1
10002614:	bd08      	pop	{r3, pc}
10002616:	bf00      	nop
10002618:	200013f8 	.word	0x200013f8

1000261c <dcd_edpt_stall>:
1000261c:	f011 007f 	ands.w	r0, r1, #127	; 0x7f
10002620:	d00a      	beq.n	10002638 <dcd_edpt_stall+0x1c>
10002622:	09c9      	lsrs	r1, r1, #7
10002624:	4b07      	ldr	r3, [pc, #28]	; (10002644 <dcd_edpt_stall+0x28>)
10002626:	eb01 0040 	add.w	r0, r1, r0, lsl #1
1000262a:	f44f 6200 	mov.w	r2, #2048	; 0x800
1000262e:	2100      	movs	r1, #0
10002630:	eb03 1040 	add.w	r0, r3, r0, lsl #5
10002634:	f001 bf00 	b.w	10004438 <___hw_endpoint_buffer_control_update32_veneer>
10002638:	4b03      	ldr	r3, [pc, #12]	; (10002648 <dcd_edpt_stall+0x2c>)
1000263a:	09c9      	lsrs	r1, r1, #7
1000263c:	f1c1 0202 	rsb	r2, r1, #2
10002640:	669a      	str	r2, [r3, #104]	; 0x68
10002642:	e7ef      	b.n	10002624 <dcd_edpt_stall+0x8>
10002644:	200013f8 	.word	0x200013f8
10002648:	50112000 	.word	0x50112000

1000264c <dcd_edpt_clear_stall>:
1000264c:	f011 037f 	ands.w	r3, r1, #127	; 0x7f
10002650:	d100      	bne.n	10002654 <dcd_edpt_clear_stall+0x8>
10002652:	4770      	bx	lr
10002654:	2200      	movs	r2, #0
10002656:	b410      	push	{r4}
10002658:	09c8      	lsrs	r0, r1, #7
1000265a:	4c06      	ldr	r4, [pc, #24]	; (10002674 <dcd_edpt_clear_stall+0x28>)
1000265c:	eb00 0043 	add.w	r0, r0, r3, lsl #1
10002660:	eb04 1340 	add.w	r3, r4, r0, lsl #5
10002664:	f46f 6100 	mvn.w	r1, #2048	; 0x800
10002668:	4618      	mov	r0, r3
1000266a:	f85d 4b04 	ldr.w	r4, [sp], #4
1000266e:	70da      	strb	r2, [r3, #3]
10002670:	f001 bee2 	b.w	10004438 <___hw_endpoint_buffer_control_update32_veneer>
10002674:	200013f8 	.word	0x200013f8

10002678 <rp2040_usb_init>:
10002678:	f04f 5280 	mov.w	r2, #268435456	; 0x10000000
1000267c:	4809      	ldr	r0, [pc, #36]	; (100026a4 <rp2040_usb_init+0x2c>)
1000267e:	490a      	ldr	r1, [pc, #40]	; (100026a8 <rp2040_usb_init+0x30>)
10002680:	b508      	push	{r3, lr}
10002682:	4b0a      	ldr	r3, [pc, #40]	; (100026ac <rp2040_usb_init+0x34>)
10002684:	6002      	str	r2, [r0, #0]
10002686:	600a      	str	r2, [r1, #0]
10002688:	6899      	ldr	r1, [r3, #8]
1000268a:	43c9      	mvns	r1, r1
1000268c:	f011 5180 	ands.w	r1, r1, #268435456	; 0x10000000
10002690:	d1fa      	bne.n	10002688 <rp2040_usb_init+0x10>
10002692:	f44f 5280 	mov.w	r2, #4096	; 0x1000
10002696:	4806      	ldr	r0, [pc, #24]	; (100026b0 <rp2040_usb_init+0x38>)
10002698:	f001 fe04 	bl	100042a4 <memset>
1000269c:	2209      	movs	r2, #9
1000269e:	4b05      	ldr	r3, [pc, #20]	; (100026b4 <rp2040_usb_init+0x3c>)
100026a0:	675a      	str	r2, [r3, #116]	; 0x74
100026a2:	bd08      	pop	{r3, pc}
100026a4:	40022000 	.word	0x40022000
100026a8:	40023000 	.word	0x40023000
100026ac:	40020000 	.word	0x40020000
100026b0:	50100000 	.word	0x50100000
100026b4:	50110000 	.word	0x50110000

100026b8 <hw_endpoint_xfer_start>:
100026b8:	7e83      	ldrb	r3, [r0, #26]
100026ba:	b510      	push	{r4, lr}
100026bc:	4604      	mov	r4, r0
100026be:	b9bb      	cbnz	r3, 100026f0 <hw_endpoint_xfer_start+0x38>
100026c0:	f04f 0c00 	mov.w	ip, #0
100026c4:	2301      	movs	r3, #1
100026c6:	4620      	mov	r0, r4
100026c8:	82a2      	strh	r2, [r4, #20]
100026ca:	6121      	str	r1, [r4, #16]
100026cc:	f8a4 c016 	strh.w	ip, [r4, #22]
100026d0:	76a3      	strb	r3, [r4, #26]
100026d2:	f001 fe81 	bl	100043d8 <__e15_is_bulkin_ep_veneer>
100026d6:	b120      	cbz	r0, 100026e2 <hw_endpoint_xfer_start+0x2a>
100026d8:	f44f 3200 	mov.w	r2, #131072	; 0x20000
100026dc:	4b08      	ldr	r3, [pc, #32]	; (10002700 <hw_endpoint_xfer_start+0x48>)
100026de:	f8c3 2090 	str.w	r2, [r3, #144]	; 0x90
100026e2:	4620      	mov	r0, r4
100026e4:	f001 fe60 	bl	100043a8 <__e15_is_critical_frame_period_veneer>
100026e8:	b128      	cbz	r0, 100026f6 <hw_endpoint_xfer_start+0x3e>
100026ea:	2301      	movs	r3, #1
100026ec:	7723      	strb	r3, [r4, #28]
100026ee:	bd10      	pop	{r4, pc}
100026f0:	f001 fe9a 	bl	10004428 <__hw_endpoint_reset_transfer_veneer>
100026f4:	e7e4      	b.n	100026c0 <hw_endpoint_xfer_start+0x8>
100026f6:	4620      	mov	r0, r4
100026f8:	e8bd 4010 	ldmia.w	sp!, {r4, lr}
100026fc:	f001 be8c 	b.w	10004418 <__hw_endpoint_start_next_buffer_veneer>
10002700:	50112000 	.word	0x50112000

10002704 <configuration_reset>:
10002704:	e92d 41f0 	stmdb	sp!, {r4, r5, r6, r7, r8, lr}
10002708:	2400      	movs	r4, #0
1000270a:	4d1d      	ldr	r5, [pc, #116]	; (10002780 <configuration_reset+0x7c>)
1000270c:	4680      	mov	r8, r0
1000270e:	4623      	mov	r3, r4
10002710:	782a      	ldrb	r2, [r5, #0]
10002712:	4f1c      	ldr	r7, [pc, #112]	; (10002784 <configuration_reset+0x80>)
10002714:	4e1c      	ldr	r6, [pc, #112]	; (10002788 <configuration_reset+0x84>)
10002716:	e00d      	b.n	10002734 <configuration_reset+0x30>
10002718:	6833      	ldr	r3, [r6, #0]
1000271a:	eb13 1344 	adds.w	r3, r3, r4, lsl #5
1000271e:	d025      	beq.n	1000276c <configuration_reset+0x68>
10002720:	68db      	ldr	r3, [r3, #12]
10002722:	4640      	mov	r0, r8
10002724:	4798      	blx	r3
10002726:	782a      	ldrb	r2, [r5, #0]
10002728:	3401      	adds	r4, #1
1000272a:	b2e4      	uxtb	r4, r4
1000272c:	1c51      	adds	r1, r2, #1
1000272e:	42a1      	cmp	r1, r4
10002730:	4623      	mov	r3, r4
10002732:	db06      	blt.n	10002742 <configuration_reset+0x3e>
10002734:	42a2      	cmp	r2, r4
10002736:	eba3 0302 	sub.w	r3, r3, r2
1000273a:	d8ed      	bhi.n	10002718 <configuration_reset+0x14>
1000273c:	eb07 1343 	add.w	r3, r7, r3, lsl #5
10002740:	e7ee      	b.n	10002720 <configuration_reset+0x1c>
10002742:	4c12      	ldr	r4, [pc, #72]	; (1000278c <configuration_reset+0x88>)
10002744:	2254      	movs	r2, #84	; 0x54
10002746:	2100      	movs	r1, #0
10002748:	4620      	mov	r0, r4
1000274a:	f001 fdab 	bl	100042a4 <memset>
1000274e:	f04f 33ff 	mov.w	r3, #4294967295	; 0xffffffff
10002752:	1d25      	adds	r5, r4, #4
10002754:	6063      	str	r3, [r4, #4]
10002756:	e9c5 3301 	strd	r3, r3, [r5, #4]
1000275a:	60eb      	str	r3, [r5, #12]
1000275c:	f104 0014 	add.w	r0, r4, #20
10002760:	2220      	movs	r2, #32
10002762:	e8bd 41f0 	ldmia.w	sp!, {r4, r5, r6, r7, r8, lr}
10002766:	21ff      	movs	r1, #255	; 0xff
10002768:	f001 bd9c 	b.w	100042a4 <memset>
1000276c:	f04f 23e0 	mov.w	r3, #3758153728	; 0xe000e000
10002770:	f8d3 3df0 	ldr.w	r3, [r3, #3568]	; 0xdf0
10002774:	07db      	lsls	r3, r3, #31
10002776:	d500      	bpl.n	1000277a <configuration_reset+0x76>
10002778:	be00      	bkpt	0x0000
1000277a:	e8bd 81f0 	ldmia.w	sp!, {r4, r5, r6, r7, r8, pc}
1000277e:	bf00      	nop
10002780:	20001851 	.word	0x20001851
10002784:	100047f4 	.word	0x100047f4
10002788:	20000c5c 	.word	0x20000c5c
1000278c:	20000fa8 	.word	0x20000fa8

10002790 <tud_event_hook_cb>:
10002790:	4770      	bx	lr
10002792:	bf00      	nop

10002794 <tud_sof_cb>:
10002794:	4770      	bx	lr
10002796:	bf00      	nop

10002798 <tud_descriptor_device_qualifier_cb>:
10002798:	2000      	movs	r0, #0
1000279a:	4770      	bx	lr

1000279c <tud_descriptor_other_speed_configuration_cb>:
1000279c:	2000      	movs	r0, #0
1000279e:	4770      	bx	lr

100027a0 <tud_mount_cb>:
100027a0:	4770      	bx	lr
100027a2:	bf00      	nop

100027a4 <tud_umount_cb>:
100027a4:	4770      	bx	lr
100027a6:	bf00      	nop

100027a8 <tud_suspend_cb>:
100027a8:	4770      	bx	lr
100027aa:	bf00      	nop

100027ac <tud_resume_cb>:
100027ac:	4770      	bx	lr
100027ae:	bf00      	nop

100027b0 <tud_mounted>:
100027b0:	4b02      	ldr	r3, [pc, #8]	; (100027bc <tud_mounted+0xc>)
100027b2:	7858      	ldrb	r0, [r3, #1]
100027b4:	3800      	subs	r0, #0
100027b6:	bf18      	it	ne
100027b8:	2001      	movne	r0, #1
100027ba:	4770      	bx	lr
100027bc:	20000fa8 	.word	0x20000fa8

100027c0 <tud_suspended>:
100027c0:	4b02      	ldr	r3, [pc, #8]	; (100027cc <tud_suspended+0xc>)
100027c2:	7818      	ldrb	r0, [r3, #0]
100027c4:	f3c0 0080 	ubfx	r0, r0, #2, #1
100027c8:	4770      	bx	lr
100027ca:	bf00      	nop
100027cc:	20000fa8 	.word	0x20000fa8

100027d0 <tud_init>:
100027d0:	e92d 43f8 	stmdb	sp!, {r3, r4, r5, r6, r7, r8, r9, lr}
100027d4:	4f2d      	ldr	r7, [pc, #180]	; (1000288c <tud_init+0xbc>)
100027d6:	783b      	ldrb	r3, [r7, #0]
100027d8:	2bff      	cmp	r3, #255	; 0xff
100027da:	d002      	beq.n	100027e2 <tud_init+0x12>
100027dc:	2001      	movs	r0, #1
100027de:	e8bd 83f8 	ldmia.w	sp!, {r3, r4, r5, r6, r7, r8, r9, pc}
100027e2:	2100      	movs	r1, #0
100027e4:	2254      	movs	r2, #84	; 0x54
100027e6:	4606      	mov	r6, r0
100027e8:	4829      	ldr	r0, [pc, #164]	; (10002890 <tud_init+0xc0>)
100027ea:	f001 fd5b 	bl	100042a4 <memset>
100027ee:	2200      	movs	r2, #0
100027f0:	4d28      	ldr	r5, [pc, #160]	; (10002894 <tud_init+0xc4>)
100027f2:	4b29      	ldr	r3, [pc, #164]	; (10002898 <tud_init+0xc8>)
100027f4:	4c29      	ldr	r4, [pc, #164]	; (1000289c <tud_init+0xcc>)
100027f6:	4628      	mov	r0, r5
100027f8:	701a      	strb	r2, [r3, #0]
100027fa:	f7fe fa8f 	bl	10000d1c <mutex_init>
100027fe:	4b28      	ldr	r3, [pc, #160]	; (100028a0 <tud_init+0xd0>)
10002800:	f104 0014 	add.w	r0, r4, #20
10002804:	601d      	str	r5, [r3, #0]
10002806:	f7fe fa97 	bl	10000d38 <critical_section_init>
1000280a:	4620      	mov	r0, r4
1000280c:	f001 fc9a 	bl	10004144 <tu_fifo_clear>
10002810:	4a24      	ldr	r2, [pc, #144]	; (100028a4 <tud_init+0xd4>)
10002812:	4b25      	ldr	r3, [pc, #148]	; (100028a8 <tud_init+0xd8>)
10002814:	6014      	str	r4, [r2, #0]
10002816:	b123      	cbz	r3, 10002822 <tud_init+0x52>
10002818:	4824      	ldr	r0, [pc, #144]	; (100028ac <tud_init+0xdc>)
1000281a:	f7ff fb5d 	bl	10001ed8 <usbd_app_driver_get_cb>
1000281e:	4b24      	ldr	r3, [pc, #144]	; (100028b0 <tud_init+0xe0>)
10002820:	6018      	str	r0, [r3, #0]
10002822:	2400      	movs	r4, #0
10002824:	4d21      	ldr	r5, [pc, #132]	; (100028ac <tud_init+0xdc>)
10002826:	4623      	mov	r3, r4
10002828:	782a      	ldrb	r2, [r5, #0]
1000282a:	f8df 9088 	ldr.w	r9, [pc, #136]	; 100028b4 <tud_init+0xe4>
1000282e:	f8df 8080 	ldr.w	r8, [pc, #128]	; 100028b0 <tud_init+0xe0>
10002832:	e00e      	b.n	10002852 <tud_init+0x82>
10002834:	f8d8 3000 	ldr.w	r3, [r8]
10002838:	eb13 1344 	adds.w	r3, r3, r4, lsl #5
1000283c:	d011      	beq.n	10002862 <tud_init+0x92>
1000283e:	685b      	ldr	r3, [r3, #4]
10002840:	b17b      	cbz	r3, 10002862 <tud_init+0x92>
10002842:	4798      	blx	r3
10002844:	782a      	ldrb	r2, [r5, #0]
10002846:	3401      	adds	r4, #1
10002848:	b2e4      	uxtb	r4, r4
1000284a:	1c51      	adds	r1, r2, #1
1000284c:	42a1      	cmp	r1, r4
1000284e:	4623      	mov	r3, r4
10002850:	db12      	blt.n	10002878 <tud_init+0xa8>
10002852:	42a2      	cmp	r2, r4
10002854:	d8ee      	bhi.n	10002834 <tud_init+0x64>
10002856:	1a9b      	subs	r3, r3, r2
10002858:	eb09 1343 	add.w	r3, r9, r3, lsl #5
1000285c:	685b      	ldr	r3, [r3, #4]
1000285e:	2b00      	cmp	r3, #0
10002860:	d1ef      	bne.n	10002842 <tud_init+0x72>
10002862:	f04f 23e0 	mov.w	r3, #3758153728	; 0xe000e000
10002866:	f8d3 0df0 	ldr.w	r0, [r3, #3568]	; 0xdf0
1000286a:	f010 0001 	ands.w	r0, r0, #1
1000286e:	d0b6      	beq.n	100027de <tud_init+0xe>
10002870:	be00      	bkpt	0x0000
10002872:	2000      	movs	r0, #0
10002874:	e8bd 83f8 	ldmia.w	sp!, {r3, r4, r5, r6, r7, r8, r9, pc}
10002878:	4630      	mov	r0, r6
1000287a:	703e      	strb	r6, [r7, #0]
1000287c:	f7ff fdc8 	bl	10002410 <dcd_init>
10002880:	4630      	mov	r0, r6
10002882:	f7ff fe0f 	bl	100024a4 <dcd_int_enable>
10002886:	2001      	movs	r0, #1
10002888:	e8bd 83f8 	ldmia.w	sp!, {r3, r4, r5, r6, r7, r8, r9, pc}
1000288c:	20000aa0 	.word	0x20000aa0
10002890:	20000fa8 	.word	0x20000fa8
10002894:	20000f60 	.word	0x20000f60
10002898:	20001853 	.word	0x20001853
1000289c:	20000a84 	.word	0x20000a84
100028a0:	20000ffc 	.word	0x20000ffc
100028a4:	20001000 	.word	0x20001000
100028a8:	10001ed9 	.word	0x10001ed9
100028ac:	20001851 	.word	0x20001851
100028b0:	20000c5c 	.word	0x20000c5c
100028b4:	100047f4 	.word	0x100047f4

100028b8 <tud_task_ext>:
100028b8:	e92d 4ff0 	stmdb	sp!, {r4, r5, r6, r7, r8, r9, sl, fp, lr}
100028bc:	f8df 92cc 	ldr.w	r9, [pc, #716]	; 10002b8c <tud_task_ext+0x2d4>
100028c0:	b08b      	sub	sp, #44	; 0x2c
100028c2:	f899 3000 	ldrb.w	r3, [r9]
100028c6:	2bff      	cmp	r3, #255	; 0xff
100028c8:	f000 80ef 	beq.w	10002aaa <tud_task_ext+0x1f2>
100028cc:	4caa      	ldr	r4, [pc, #680]	; (10002b78 <tud_task_ext+0x2c0>)
100028ce:	f8df a2c0 	ldr.w	sl, [pc, #704]	; 10002b90 <tud_task_ext+0x2d8>
100028d2:	f8df b2c0 	ldr.w	fp, [pc, #704]	; 10002b94 <tud_task_ext+0x2dc>
100028d6:	6825      	ldr	r5, [r4, #0]
100028d8:	696b      	ldr	r3, [r5, #20]
100028da:	f3ef 8210 	mrs	r2, PRIMASK
100028de:	b672      	cpsid	i
100028e0:	e8d3 0fcf 	ldaexb	r0, [r3]
100028e4:	2101      	movs	r1, #1
100028e6:	2800      	cmp	r0, #0
100028e8:	d1fa      	bne.n	100028e0 <tud_task_ext+0x28>
100028ea:	e8c3 1f40 	strexb	r0, r1, [r3]
100028ee:	2800      	cmp	r0, #0
100028f0:	d1f6      	bne.n	100028e0 <tud_task_ext+0x28>
100028f2:	f3bf 8f5f 	dmb	sy
100028f6:	61aa      	str	r2, [r5, #24]
100028f8:	4628      	mov	r0, r5
100028fa:	a907      	add	r1, sp, #28
100028fc:	f001 fae4 	bl	10003ec8 <tu_fifo_read>
10002900:	2300      	movs	r3, #0
10002902:	696a      	ldr	r2, [r5, #20]
10002904:	e8c2 3f8f 	stlb	r3, [r2]
10002908:	69ab      	ldr	r3, [r5, #24]
1000290a:	f383 8810 	msr	PRIMASK, r3
1000290e:	2800      	cmp	r0, #0
10002910:	f000 80cb 	beq.w	10002aaa <tud_task_ext+0x1f2>
10002914:	f89d 301d 	ldrb.w	r3, [sp, #29]
10002918:	3b01      	subs	r3, #1
1000291a:	2b07      	cmp	r3, #7
1000291c:	f200 838e 	bhi.w	1000303c <tud_task_ext+0x784>
10002920:	e8df f003 	tbb	[pc, r3]
10002924:	9a91b0a5 	.word	0x9a91b0a5
10002928:	040a3689 	.word	0x040a3689
1000292c:	9b08      	ldr	r3, [sp, #32]
1000292e:	2b00      	cmp	r3, #0
10002930:	d0d1      	beq.n	100028d6 <tud_task_ext+0x1e>
10002932:	9809      	ldr	r0, [sp, #36]	; 0x24
10002934:	4798      	blx	r3
10002936:	e7ce      	b.n	100028d6 <tud_task_ext+0x1e>
10002938:	f89d 1020 	ldrb.w	r1, [sp, #32]
1000293c:	4b8f      	ldr	r3, [pc, #572]	; (10002b7c <tud_task_ext+0x2c4>)
1000293e:	f001 057f 	and.w	r5, r1, #127	; 0x7f
10002942:	eb03 0345 	add.w	r3, r3, r5, lsl #1
10002946:	eb03 13d1 	add.w	r3, r3, r1, lsr #7
1000294a:	f893 2034 	ldrb.w	r2, [r3, #52]	; 0x34
1000294e:	f36f 0200 	bfc	r2, #0, #1
10002952:	f883 2034 	strb.w	r2, [r3, #52]	; 0x34
10002956:	f893 2034 	ldrb.w	r2, [r3, #52]	; 0x34
1000295a:	f36f 0282 	bfc	r2, #2, #1
1000295e:	f883 2034 	strb.w	r2, [r3, #52]	; 0x34
10002962:	2d00      	cmp	r5, #0
10002964:	f000 80a4 	beq.w	10002ab0 <tud_task_ext+0x1f8>
10002968:	4a85      	ldr	r2, [pc, #532]	; (10002b80 <tud_task_ext+0x2c8>)
1000296a:	7d1b      	ldrb	r3, [r3, #20]
1000296c:	7812      	ldrb	r2, [r2, #0]
1000296e:	4293      	cmp	r3, r2
10002970:	f080 8091 	bcs.w	10002a96 <tud_task_ext+0x1de>
10002974:	f8db 2000 	ldr.w	r2, [fp]
10002978:	eb12 1343 	adds.w	r3, r2, r3, lsl #5
1000297c:	f000 808e 	beq.w	10002a9c <tud_task_ext+0x1e4>
10002980:	699d      	ldr	r5, [r3, #24]
10002982:	f89d 2021 	ldrb.w	r2, [sp, #33]	; 0x21
10002986:	9b09      	ldr	r3, [sp, #36]	; 0x24
10002988:	f89d 001c 	ldrb.w	r0, [sp, #28]
1000298c:	47a8      	blx	r5
1000298e:	e7a2      	b.n	100028d6 <tud_task_ext+0x1e>
10002990:	4a7c      	ldr	r2, [pc, #496]	; (10002b84 <tud_task_ext+0x2cc>)
10002992:	7813      	ldrb	r3, [r2, #0]
10002994:	2b00      	cmp	r3, #0
10002996:	f000 8081 	beq.w	10002a9c <tud_task_ext+0x1e4>
1000299a:	7813      	ldrb	r3, [r2, #0]
1000299c:	3b01      	subs	r3, #1
1000299e:	b2db      	uxtb	r3, r3
100029a0:	7013      	strb	r3, [r2, #0]
100029a2:	7813      	ldrb	r3, [r2, #0]
100029a4:	f003 00ff 	and.w	r0, r3, #255	; 0xff
100029a8:	2b00      	cmp	r3, #0
100029aa:	d194      	bne.n	100028d6 <tud_task_ext+0x1e>
100029ac:	4d73      	ldr	r5, [pc, #460]	; (10002b7c <tud_task_ext+0x2c4>)
100029ae:	f89d 801c 	ldrb.w	r8, [sp, #28]
100029b2:	782b      	ldrb	r3, [r5, #0]
100029b4:	f043 0301 	orr.w	r3, r3, #1
100029b8:	702b      	strb	r3, [r5, #0]
100029ba:	f895 3034 	ldrb.w	r3, [r5, #52]	; 0x34
100029be:	f360 0300 	bfi	r3, r0, #0, #1
100029c2:	f885 3034 	strb.w	r3, [r5, #52]	; 0x34
100029c6:	f895 3034 	ldrb.w	r3, [r5, #52]	; 0x34
100029ca:	f360 0382 	bfi	r3, r0, #2, #1
100029ce:	f885 3034 	strb.w	r3, [r5, #52]	; 0x34
100029d2:	f895 3035 	ldrb.w	r3, [r5, #53]	; 0x35
100029d6:	f360 0300 	bfi	r3, r0, #0, #1
100029da:	f885 3035 	strb.w	r3, [r5, #53]	; 0x35
100029de:	f895 3035 	ldrb.w	r3, [r5, #53]	; 0x35
100029e2:	f360 0382 	bfi	r3, r0, #2, #1
100029e6:	f885 3035 	strb.w	r3, [r5, #53]	; 0x35
100029ea:	f000 fc8d 	bl	10003308 <usbd_control_set_complete_callback>
100029ee:	f89d 3020 	ldrb.w	r3, [sp, #32]
100029f2:	f003 0260 	and.w	r2, r3, #96	; 0x60
100029f6:	2a60      	cmp	r2, #96	; 0x60
100029f8:	d00b      	beq.n	10002a12 <tud_task_ext+0x15a>
100029fa:	2a40      	cmp	r2, #64	; 0x40
100029fc:	d064      	beq.n	10002ac8 <tud_task_ext+0x210>
100029fe:	f003 031f 	and.w	r3, r3, #31
10002a02:	2b01      	cmp	r3, #1
10002a04:	f000 80c8 	beq.w	10002b98 <tud_task_ext+0x2e0>
10002a08:	2b02      	cmp	r3, #2
10002a0a:	f000 8089 	beq.w	10002b20 <tud_task_ext+0x268>
10002a0e:	2b00      	cmp	r3, #0
10002a10:	d066      	beq.n	10002ae0 <tud_task_ext+0x228>
10002a12:	f04f 23e0 	mov.w	r3, #3758153728	; 0xe000e000
10002a16:	f8d3 3df0 	ldr.w	r3, [r3, #3568]	; 0xdf0
10002a1a:	07dd      	lsls	r5, r3, #31
10002a1c:	d500      	bpl.n	10002a20 <tud_task_ext+0x168>
10002a1e:	be00      	bkpt	0x0000
10002a20:	f89d 001c 	ldrb.w	r0, [sp, #28]
10002a24:	2100      	movs	r1, #0
10002a26:	f7ff fdf9 	bl	1000261c <dcd_edpt_stall>
10002a2a:	2180      	movs	r1, #128	; 0x80
10002a2c:	f89d 001c 	ldrb.w	r0, [sp, #28]
10002a30:	f7ff fdf4 	bl	1000261c <dcd_edpt_stall>
10002a34:	e74f      	b.n	100028d6 <tud_task_ext+0x1e>
10002a36:	4b51      	ldr	r3, [pc, #324]	; (10002b7c <tud_task_ext+0x2c4>)
10002a38:	781b      	ldrb	r3, [r3, #0]
10002a3a:	07d9      	lsls	r1, r3, #31
10002a3c:	f57f af4b 	bpl.w	100028d6 <tud_task_ext+0x1e>
10002a40:	f7ff feb4 	bl	100027ac <tud_resume_cb>
10002a44:	e747      	b.n	100028d6 <tud_task_ext+0x1e>
10002a46:	4b4d      	ldr	r3, [pc, #308]	; (10002b7c <tud_task_ext+0x2c4>)
10002a48:	78db      	ldrb	r3, [r3, #3]
10002a4a:	07da      	lsls	r2, r3, #31
10002a4c:	f57f af43 	bpl.w	100028d6 <tud_task_ext+0x1e>
10002a50:	9808      	ldr	r0, [sp, #32]
10002a52:	f7ff fe9f 	bl	10002794 <tud_sof_cb>
10002a56:	e73e      	b.n	100028d6 <tud_task_ext+0x1e>
10002a58:	4b48      	ldr	r3, [pc, #288]	; (10002b7c <tud_task_ext+0x2c4>)
10002a5a:	781a      	ldrb	r2, [r3, #0]
10002a5c:	07d0      	lsls	r0, r2, #31
10002a5e:	f57f af3a 	bpl.w	100028d6 <tud_task_ext+0x1e>
10002a62:	7818      	ldrb	r0, [r3, #0]
10002a64:	f3c0 00c0 	ubfx	r0, r0, #3, #1
10002a68:	f7ff fe9e 	bl	100027a8 <tud_suspend_cb>
10002a6c:	e733      	b.n	100028d6 <tud_task_ext+0x1e>
10002a6e:	f89d 001c 	ldrb.w	r0, [sp, #28]
10002a72:	f7ff fe47 	bl	10002704 <configuration_reset>
10002a76:	f000 fc3d 	bl	100032f4 <usbd_control_reset>
10002a7a:	4b40      	ldr	r3, [pc, #256]	; (10002b7c <tud_task_ext+0x2c4>)
10002a7c:	f89d 2020 	ldrb.w	r2, [sp, #32]
10002a80:	709a      	strb	r2, [r3, #2]
10002a82:	e728      	b.n	100028d6 <tud_task_ext+0x1e>
10002a84:	f89d 001c 	ldrb.w	r0, [sp, #28]
10002a88:	f7ff fe3c 	bl	10002704 <configuration_reset>
10002a8c:	f000 fc32 	bl	100032f4 <usbd_control_reset>
10002a90:	f7ff fe88 	bl	100027a4 <tud_umount_cb>
10002a94:	e71f      	b.n	100028d6 <tud_task_ext+0x1e>
10002a96:	1c50      	adds	r0, r2, #1
10002a98:	4298      	cmp	r0, r3
10002a9a:	da11      	bge.n	10002ac0 <tud_task_ext+0x208>
10002a9c:	f04f 23e0 	mov.w	r3, #3758153728	; 0xe000e000
10002aa0:	f8d3 3df0 	ldr.w	r3, [r3, #3568]	; 0xdf0
10002aa4:	07dc      	lsls	r4, r3, #31
10002aa6:	d500      	bpl.n	10002aaa <tud_task_ext+0x1f2>
10002aa8:	be00      	bkpt	0x0000
10002aaa:	b00b      	add	sp, #44	; 0x2c
10002aac:	e8bd 8ff0 	ldmia.w	sp!, {r4, r5, r6, r7, r8, r9, sl, fp, pc}
10002ab0:	9b09      	ldr	r3, [sp, #36]	; 0x24
10002ab2:	f89d 2021 	ldrb.w	r2, [sp, #33]	; 0x21
10002ab6:	f89d 001c 	ldrb.w	r0, [sp, #28]
10002aba:	f000 fc39 	bl	10003330 <usbd_control_xfer_cb>
10002abe:	e70a      	b.n	100028d6 <tud_task_ext+0x1e>
10002ac0:	1a9b      	subs	r3, r3, r2
10002ac2:	eb0a 1343 	add.w	r3, sl, r3, lsl #5
10002ac6:	e75b      	b.n	10002980 <tud_task_ext+0xc8>
10002ac8:	482f      	ldr	r0, [pc, #188]	; (10002b88 <tud_task_ext+0x2d0>)
10002aca:	f000 fc1d 	bl	10003308 <usbd_control_set_complete_callback>
10002ace:	4640      	mov	r0, r8
10002ad0:	2101      	movs	r1, #1
10002ad2:	aa08      	add	r2, sp, #32
10002ad4:	f7ff f9ec 	bl	10001eb0 <tud_vendor_control_xfer_cb>
10002ad8:	2800      	cmp	r0, #0
10002ada:	f47f aefc 	bne.w	100028d6 <tud_task_ext+0x1e>
10002ade:	e79f      	b.n	10002a20 <tud_task_ext+0x168>
10002ae0:	2a20      	cmp	r2, #32
10002ae2:	f000 818d 	beq.w	10002e00 <tud_task_ext+0x548>
10002ae6:	2a00      	cmp	r2, #0
10002ae8:	d193      	bne.n	10002a12 <tud_task_ext+0x15a>
10002aea:	f89d 3021 	ldrb.w	r3, [sp, #33]	; 0x21
10002aee:	2b09      	cmp	r3, #9
10002af0:	d88f      	bhi.n	10002a12 <tud_task_ext+0x15a>
10002af2:	a201      	add	r2, pc, #4	; (adr r2, 10002af8 <tud_task_ext+0x240>)
10002af4:	f852 f023 	ldr.w	pc, [r2, r3, lsl #2]
10002af8:	10002d9f 	.word	0x10002d9f
10002afc:	10002d83 	.word	0x10002d83
10002b00:	10002a13 	.word	0x10002a13
10002b04:	10002dc1 	.word	0x10002dc1
10002b08:	10002a13 	.word	0x10002a13
10002b0c:	10002d69 	.word	0x10002d69
10002b10:	10002d17 	.word	0x10002d17
10002b14:	10002a13 	.word	0x10002a13
10002b18:	10002d01 	.word	0x10002d01
10002b1c:	10002c27 	.word	0x10002c27
10002b20:	f89d 1024 	ldrb.w	r1, [sp, #36]	; 0x24
10002b24:	f011 0f70 	tst.w	r1, #112	; 0x70
10002b28:	f47f af73 	bne.w	10002a12 <tud_task_ext+0x15a>
10002b2c:	4b14      	ldr	r3, [pc, #80]	; (10002b80 <tud_task_ext+0x2c8>)
10002b2e:	f001 067f 	and.w	r6, r1, #127	; 0x7f
10002b32:	7818      	ldrb	r0, [r3, #0]
10002b34:	eb05 0346 	add.w	r3, r5, r6, lsl #1
10002b38:	eb03 13d1 	add.w	r3, r3, r1, lsr #7
10002b3c:	7d1f      	ldrb	r7, [r3, #20]
10002b3e:	09cb      	lsrs	r3, r1, #7
10002b40:	4287      	cmp	r7, r0
10002b42:	ea4f 0646 	mov.w	r6, r6, lsl #1
10002b46:	9301      	str	r3, [sp, #4]
10002b48:	d35b      	bcc.n	10002c02 <tud_task_ext+0x34a>
10002b4a:	1c43      	adds	r3, r0, #1
10002b4c:	42bb      	cmp	r3, r7
10002b4e:	f2c0 8174 	blt.w	10002e3a <tud_task_ext+0x582>
10002b52:	1a3f      	subs	r7, r7, r0
10002b54:	eb0a 1747 	add.w	r7, sl, r7, lsl #5
10002b58:	2a00      	cmp	r2, #0
10002b5a:	f000 8172 	beq.w	10002e42 <tud_task_ext+0x58a>
10002b5e:	6978      	ldr	r0, [r7, #20]
10002b60:	f000 fbd2 	bl	10003308 <usbd_control_set_complete_callback>
10002b64:	4640      	mov	r0, r8
10002b66:	2101      	movs	r1, #1
10002b68:	697b      	ldr	r3, [r7, #20]
10002b6a:	aa08      	add	r2, sp, #32
10002b6c:	4798      	blx	r3
10002b6e:	2800      	cmp	r0, #0
10002b70:	f47f aeb1 	bne.w	100028d6 <tud_task_ext+0x1e>
10002b74:	e754      	b.n	10002a20 <tud_task_ext+0x168>
10002b76:	bf00      	nop
10002b78:	20001000 	.word	0x20001000
10002b7c:	20000fa8 	.word	0x20000fa8
10002b80:	20001851 	.word	0x20001851
10002b84:	20001853 	.word	0x20001853
10002b88:	10001eb1 	.word	0x10001eb1
10002b8c:	20000aa0 	.word	0x20000aa0
10002b90:	100047f4 	.word	0x100047f4
10002b94:	20000c5c 	.word	0x20000c5c
10002b98:	f89d 3024 	ldrb.w	r3, [sp, #36]	; 0x24
10002b9c:	2b0f      	cmp	r3, #15
10002b9e:	f63f af3f 	bhi.w	10002a20 <tud_task_ext+0x168>
10002ba2:	4ab5      	ldr	r2, [pc, #724]	; (10002e78 <tud_task_ext+0x5c0>)
10002ba4:	442b      	add	r3, r5
10002ba6:	791b      	ldrb	r3, [r3, #4]
10002ba8:	7815      	ldrb	r5, [r2, #0]
10002baa:	42ab      	cmp	r3, r5
10002bac:	d334      	bcc.n	10002c18 <tud_task_ext+0x360>
10002bae:	1c6a      	adds	r2, r5, #1
10002bb0:	429a      	cmp	r2, r3
10002bb2:	f6ff af35 	blt.w	10002a20 <tud_task_ext+0x168>
10002bb6:	1b5b      	subs	r3, r3, r5
10002bb8:	eb0a 1543 	add.w	r5, sl, r3, lsl #5
10002bbc:	6968      	ldr	r0, [r5, #20]
10002bbe:	f000 fba3 	bl	10003308 <usbd_control_set_complete_callback>
10002bc2:	2101      	movs	r1, #1
10002bc4:	4640      	mov	r0, r8
10002bc6:	696b      	ldr	r3, [r5, #20]
10002bc8:	aa08      	add	r2, sp, #32
10002bca:	4798      	blx	r3
10002bcc:	2800      	cmp	r0, #0
10002bce:	f47f ae82 	bne.w	100028d6 <tud_task_ext+0x1e>
10002bd2:	f89d 3020 	ldrb.w	r3, [sp, #32]
10002bd6:	f013 0560 	ands.w	r5, r3, #96	; 0x60
10002bda:	f47f af21 	bne.w	10002a20 <tud_task_ext+0x168>
10002bde:	f89d 3021 	ldrb.w	r3, [sp, #33]	; 0x21
10002be2:	3b0a      	subs	r3, #10
10002be4:	2b01      	cmp	r3, #1
10002be6:	f63f af1b 	bhi.w	10002a20 <tud_task_ext+0x168>
10002bea:	f000 fb8d 	bl	10003308 <usbd_control_set_complete_callback>
10002bee:	f89d 3021 	ldrb.w	r3, [sp, #33]	; 0x21
10002bf2:	2b0a      	cmp	r3, #10
10002bf4:	f000 81f7 	beq.w	10002fe6 <tud_task_ext+0x72e>
10002bf8:	4640      	mov	r0, r8
10002bfa:	a908      	add	r1, sp, #32
10002bfc:	f000 fb22 	bl	10003244 <tud_control_status>
10002c00:	e669      	b.n	100028d6 <tud_task_ext+0x1e>
10002c02:	f8db 3000 	ldr.w	r3, [fp]
10002c06:	eb03 1747 	add.w	r7, r3, r7, lsl #5
10002c0a:	2a00      	cmp	r2, #0
10002c0c:	f000 8119 	beq.w	10002e42 <tud_task_ext+0x58a>
10002c10:	2f00      	cmp	r7, #0
10002c12:	f43f af05 	beq.w	10002a20 <tud_task_ext+0x168>
10002c16:	e7a2      	b.n	10002b5e <tud_task_ext+0x2a6>
10002c18:	f8db 5000 	ldr.w	r5, [fp]
10002c1c:	eb15 1543 	adds.w	r5, r5, r3, lsl #5
10002c20:	f43f aefe 	beq.w	10002a20 <tud_task_ext+0x168>
10002c24:	e7ca      	b.n	10002bbc <tud_task_ext+0x304>
10002c26:	786b      	ldrb	r3, [r5, #1]
10002c28:	f89d 6022 	ldrb.w	r6, [sp, #34]	; 0x22
10002c2c:	429e      	cmp	r6, r3
10002c2e:	f000 8154 	beq.w	10002eda <tud_task_ext+0x622>
10002c32:	786b      	ldrb	r3, [r5, #1]
10002c34:	2b00      	cmp	r3, #0
10002c36:	f040 81c4 	bne.w	10002fc2 <tud_task_ext+0x70a>
10002c3a:	706e      	strb	r6, [r5, #1]
10002c3c:	2e00      	cmp	r6, #0
10002c3e:	f000 814a 	beq.w	10002ed6 <tud_task_ext+0x61e>
10002c42:	1e70      	subs	r0, r6, #1
10002c44:	b2c0      	uxtb	r0, r0
10002c46:	f7ff fb5b 	bl	10002300 <tud_descriptor_configuration_cb>
10002c4a:	2800      	cmp	r0, #0
10002c4c:	f000 8165 	beq.w	10002f1a <tud_task_ext+0x662>
10002c50:	7843      	ldrb	r3, [r0, #1]
10002c52:	2b02      	cmp	r3, #2
10002c54:	f040 8161 	bne.w	10002f1a <tud_task_ext+0x662>
10002c58:	782b      	ldrb	r3, [r5, #0]
10002c5a:	79c2      	ldrb	r2, [r0, #7]
10002c5c:	f023 0130 	bic.w	r1, r3, #48	; 0x30
10002c60:	f3c2 1340 	ubfx	r3, r2, #5, #1
10002c64:	011b      	lsls	r3, r3, #4
10002c66:	f3c2 1280 	ubfx	r2, r2, #6, #1
10002c6a:	ea43 1342 	orr.w	r3, r3, r2, lsl #5
10002c6e:	430b      	orrs	r3, r1
10002c70:	702b      	strb	r3, [r5, #0]
10002c72:	8843      	ldrh	r3, [r0, #2]
10002c74:	f100 0609 	add.w	r6, r0, #9
10002c78:	18c3      	adds	r3, r0, r3
10002c7a:	9302      	str	r3, [sp, #8]
10002c7c:	f8cd 800c 	str.w	r8, [sp, #12]
10002c80:	9b02      	ldr	r3, [sp, #8]
10002c82:	42b3      	cmp	r3, r6
10002c84:	f240 81aa 	bls.w	10002fdc <tud_task_ext+0x724>
10002c88:	7872      	ldrb	r2, [r6, #1]
10002c8a:	2a0b      	cmp	r2, #11
10002c8c:	f000 81b5 	beq.w	10002ffa <tud_task_ext+0x742>
10002c90:	2301      	movs	r3, #1
10002c92:	2a04      	cmp	r2, #4
10002c94:	f040 8141 	bne.w	10002f1a <tud_task_ext+0x662>
10002c98:	4618      	mov	r0, r3
10002c9a:	f04f 0800 	mov.w	r8, #0
10002c9e:	9a02      	ldr	r2, [sp, #8]
10002ca0:	4975      	ldr	r1, [pc, #468]	; (10002e78 <tud_task_ext+0x5c0>)
10002ca2:	1b92      	subs	r2, r2, r6
10002ca4:	4633      	mov	r3, r6
10002ca6:	7809      	ldrb	r1, [r1, #0]
10002ca8:	4606      	mov	r6, r0
10002caa:	b292      	uxth	r2, r2
10002cac:	f8cd 8004 	str.w	r8, [sp, #4]
10002cb0:	e01e      	b.n	10002cf0 <tud_task_ext+0x438>
10002cb2:	f8db 7000 	ldr.w	r7, [fp]
10002cb6:	eb17 1748 	adds.w	r7, r7, r8, lsl #5
10002cba:	f000 812e 	beq.w	10002f1a <tud_task_ext+0x662>
10002cbe:	4619      	mov	r1, r3
10002cc0:	9304      	str	r3, [sp, #16]
10002cc2:	9803      	ldr	r0, [sp, #12]
10002cc4:	693b      	ldr	r3, [r7, #16]
10002cc6:	9205      	str	r2, [sp, #20]
10002cc8:	4798      	blx	r3
10002cca:	e9dd 3204 	ldrd	r3, r2, [sp, #16]
10002cce:	2808      	cmp	r0, #8
10002cd0:	f108 0101 	add.w	r1, r8, #1
10002cd4:	d902      	bls.n	10002cdc <tud_task_ext+0x424>
10002cd6:	4282      	cmp	r2, r0
10002cd8:	f080 8104 	bcs.w	10002ee4 <tud_task_ext+0x62c>
10002cdc:	fa5f f881 	uxtb.w	r8, r1
10002ce0:	4965      	ldr	r1, [pc, #404]	; (10002e78 <tud_task_ext+0x5c0>)
10002ce2:	f8cd 8004 	str.w	r8, [sp, #4]
10002ce6:	7809      	ldrb	r1, [r1, #0]
10002ce8:	1c48      	adds	r0, r1, #1
10002cea:	4580      	cmp	r8, r0
10002cec:	f300 8115 	bgt.w	10002f1a <tud_task_ext+0x662>
10002cf0:	9801      	ldr	r0, [sp, #4]
10002cf2:	4541      	cmp	r1, r8
10002cf4:	eba0 0101 	sub.w	r1, r0, r1
10002cf8:	d8db      	bhi.n	10002cb2 <tud_task_ext+0x3fa>
10002cfa:	eb0a 1741 	add.w	r7, sl, r1, lsl #5
10002cfe:	e7de      	b.n	10002cbe <tud_task_ext+0x406>
10002d00:	786b      	ldrb	r3, [r5, #1]
10002d02:	4640      	mov	r0, r8
10002d04:	f88d 301a 	strb.w	r3, [sp, #26]
10002d08:	f10d 021a 	add.w	r2, sp, #26
10002d0c:	2301      	movs	r3, #1
10002d0e:	a908      	add	r1, sp, #32
10002d10:	f000 fab2 	bl	10003278 <tud_control_xfer>
10002d14:	e5df      	b.n	100028d6 <tud_task_ext+0x1e>
10002d16:	f8bd 0022 	ldrh.w	r0, [sp, #34]	; 0x22
10002d1a:	0a03      	lsrs	r3, r0, #8
10002d1c:	1e5a      	subs	r2, r3, #1
10002d1e:	b2c0      	uxtb	r0, r0
10002d20:	2a0e      	cmp	r2, #14
10002d22:	f63f ae7d 	bhi.w	10002a20 <tud_task_ext+0x168>
10002d26:	a101      	add	r1, pc, #4	; (adr r1, 10002d2c <tud_task_ext+0x474>)
10002d28:	f851 f022 	ldr.w	pc, [r1, r2, lsl #2]
10002d2c:	10002f4b 	.word	0x10002f4b
10002d30:	10002ddd 	.word	0x10002ddd
10002d34:	10002f87 	.word	0x10002f87
10002d38:	10002a21 	.word	0x10002a21
10002d3c:	10002a21 	.word	0x10002a21
10002d40:	10002f69 	.word	0x10002f69
10002d44:	10002ddd 	.word	0x10002ddd
10002d48:	10002a21 	.word	0x10002a21
10002d4c:	10002a21 	.word	0x10002a21
10002d50:	10002a21 	.word	0x10002a21
10002d54:	10002a21 	.word	0x10002a21
10002d58:	10002a21 	.word	0x10002a21
10002d5c:	10002a21 	.word	0x10002a21
10002d60:	10002a21 	.word	0x10002a21
10002d64:	10002f3d 	.word	0x10002f3d
10002d68:	a808      	add	r0, sp, #32
10002d6a:	f000 fad3 	bl	10003314 <usbd_control_set_request>
10002d6e:	4640      	mov	r0, r8
10002d70:	f89d 1022 	ldrb.w	r1, [sp, #34]	; 0x22
10002d74:	f7ff fb9a 	bl	100024ac <dcd_set_address>
10002d78:	782b      	ldrb	r3, [r5, #0]
10002d7a:	f043 0302 	orr.w	r3, r3, #2
10002d7e:	702b      	strb	r3, [r5, #0]
10002d80:	e5a9      	b.n	100028d6 <tud_task_ext+0x1e>
10002d82:	f8bd 3022 	ldrh.w	r3, [sp, #34]	; 0x22
10002d86:	2b01      	cmp	r3, #1
10002d88:	f47f ae4a 	bne.w	10002a20 <tud_task_ext+0x168>
10002d8c:	782b      	ldrb	r3, [r5, #0]
10002d8e:	4640      	mov	r0, r8
10002d90:	f36f 03c3 	bfc	r3, #3, #1
10002d94:	a908      	add	r1, sp, #32
10002d96:	702b      	strb	r3, [r5, #0]
10002d98:	f000 fa54 	bl	10003244 <tud_control_status>
10002d9c:	e59b      	b.n	100028d6 <tud_task_ext+0x1e>
10002d9e:	4640      	mov	r0, r8
10002da0:	782b      	ldrb	r3, [r5, #0]
10002da2:	089a      	lsrs	r2, r3, #2
10002da4:	f002 0202 	and.w	r2, r2, #2
10002da8:	f3c3 1340 	ubfx	r3, r3, #5, #1
10002dac:	4313      	orrs	r3, r2
10002dae:	f8ad 301a 	strh.w	r3, [sp, #26]
10002db2:	f10d 021a 	add.w	r2, sp, #26
10002db6:	2302      	movs	r3, #2
10002db8:	a908      	add	r1, sp, #32
10002dba:	f000 fa5d 	bl	10003278 <tud_control_xfer>
10002dbe:	e58a      	b.n	100028d6 <tud_task_ext+0x1e>
10002dc0:	f8bd 3022 	ldrh.w	r3, [sp, #34]	; 0x22
10002dc4:	2b01      	cmp	r3, #1
10002dc6:	f47f ae2b 	bne.w	10002a20 <tud_task_ext+0x168>
10002dca:	782b      	ldrb	r3, [r5, #0]
10002dcc:	4640      	mov	r0, r8
10002dce:	f043 0308 	orr.w	r3, r3, #8
10002dd2:	a908      	add	r1, sp, #32
10002dd4:	702b      	strb	r3, [r5, #0]
10002dd6:	f000 fa35 	bl	10003244 <tud_control_status>
10002dda:	e57c      	b.n	100028d6 <tud_task_ext+0x1e>
10002ddc:	2b02      	cmp	r3, #2
10002dde:	f000 8111 	beq.w	10003004 <tud_task_ext+0x74c>
10002de2:	f7ff fcdb 	bl	1000279c <tud_descriptor_other_speed_configuration_cb>
10002de6:	4602      	mov	r2, r0
10002de8:	2800      	cmp	r0, #0
10002dea:	f43f ae19 	beq.w	10002a20 <tud_task_ext+0x168>
10002dee:	4640      	mov	r0, r8
10002df0:	8853      	ldrh	r3, [r2, #2]
10002df2:	a908      	add	r1, sp, #32
10002df4:	f000 fa40 	bl	10003278 <tud_control_xfer>
10002df8:	2800      	cmp	r0, #0
10002dfa:	f47f ad6c 	bne.w	100028d6 <tud_task_ext+0x1e>
10002dfe:	e60f      	b.n	10002a20 <tud_task_ext+0x168>
10002e00:	f89d 3024 	ldrb.w	r3, [sp, #36]	; 0x24
10002e04:	2b0f      	cmp	r3, #15
10002e06:	f63f ae0b 	bhi.w	10002a20 <tud_task_ext+0x168>
10002e0a:	4a1b      	ldr	r2, [pc, #108]	; (10002e78 <tud_task_ext+0x5c0>)
10002e0c:	442b      	add	r3, r5
10002e0e:	791b      	ldrb	r3, [r3, #4]
10002e10:	7815      	ldrb	r5, [r2, #0]
10002e12:	42ab      	cmp	r3, r5
10002e14:	d227      	bcs.n	10002e66 <tud_task_ext+0x5ae>
10002e16:	f8db 5000 	ldr.w	r5, [fp]
10002e1a:	eb15 1543 	adds.w	r5, r5, r3, lsl #5
10002e1e:	f43f adff 	beq.w	10002a20 <tud_task_ext+0x168>
10002e22:	6968      	ldr	r0, [r5, #20]
10002e24:	f000 fa70 	bl	10003308 <usbd_control_set_complete_callback>
10002e28:	4640      	mov	r0, r8
10002e2a:	2101      	movs	r1, #1
10002e2c:	696b      	ldr	r3, [r5, #20]
10002e2e:	aa08      	add	r2, sp, #32
10002e30:	4798      	blx	r3
10002e32:	2800      	cmp	r0, #0
10002e34:	f47f ad4f 	bne.w	100028d6 <tud_task_ext+0x1e>
10002e38:	e5f2      	b.n	10002a20 <tud_task_ext+0x168>
10002e3a:	2a00      	cmp	r2, #0
10002e3c:	f47f adf0 	bne.w	10002a20 <tud_task_ext+0x168>
10002e40:	2700      	movs	r7, #0
10002e42:	f89d 2021 	ldrb.w	r2, [sp, #33]	; 0x21
10002e46:	f002 03fd 	and.w	r3, r2, #253	; 0xfd
10002e4a:	2b01      	cmp	r3, #1
10002e4c:	d016      	beq.n	10002e7c <tud_task_ext+0x5c4>
10002e4e:	2a00      	cmp	r2, #0
10002e50:	f47f addf 	bne.w	10002a12 <tud_task_ext+0x15a>
10002e54:	9b01      	ldr	r3, [sp, #4]
10002e56:	4435      	add	r5, r6
10002e58:	442b      	add	r3, r5
10002e5a:	f893 3034 	ldrb.w	r3, [r3, #52]	; 0x34
10002e5e:	4640      	mov	r0, r8
10002e60:	f3c3 0340 	ubfx	r3, r3, #1, #1
10002e64:	e7a3      	b.n	10002dae <tud_task_ext+0x4f6>
10002e66:	1c6a      	adds	r2, r5, #1
10002e68:	429a      	cmp	r2, r3
10002e6a:	f6ff add9 	blt.w	10002a20 <tud_task_ext+0x168>
10002e6e:	1b5b      	subs	r3, r3, r5
10002e70:	eb0a 1543 	add.w	r5, sl, r3, lsl #5
10002e74:	e7d5      	b.n	10002e22 <tud_task_ext+0x56a>
10002e76:	bf00      	nop
10002e78:	20001851 	.word	0x20001851
10002e7c:	f8bd 3022 	ldrh.w	r3, [sp, #34]	; 0x22
10002e80:	b9ab      	cbnz	r3, 10002eae <tud_task_ext+0x5f6>
10002e82:	2a01      	cmp	r2, #1
10002e84:	f000 8087 	beq.w	10002f96 <tud_task_ext+0x6de>
10002e88:	f899 0000 	ldrb.w	r0, [r9]
10002e8c:	f7ff fbc6 	bl	1000261c <dcd_edpt_stall>
10002e90:	9a01      	ldr	r2, [sp, #4]
10002e92:	19ab      	adds	r3, r5, r6
10002e94:	4413      	add	r3, r2
10002e96:	f893 2034 	ldrb.w	r2, [r3, #52]	; 0x34
10002e9a:	f042 0202 	orr.w	r2, r2, #2
10002e9e:	f883 2034 	strb.w	r2, [r3, #52]	; 0x34
10002ea2:	f893 2034 	ldrb.w	r2, [r3, #52]	; 0x34
10002ea6:	f042 0201 	orr.w	r2, r2, #1
10002eaa:	f883 2034 	strb.w	r2, [r3, #52]	; 0x34
10002eae:	2f00      	cmp	r7, #0
10002eb0:	f43f ad11 	beq.w	100028d6 <tud_task_ext+0x1e>
10002eb4:	6978      	ldr	r0, [r7, #20]
10002eb6:	f000 fa27 	bl	10003308 <usbd_control_set_complete_callback>
10002eba:	697b      	ldr	r3, [r7, #20]
10002ebc:	2101      	movs	r1, #1
10002ebe:	aa08      	add	r2, sp, #32
10002ec0:	4640      	mov	r0, r8
10002ec2:	4798      	blx	r3
10002ec4:	2000      	movs	r0, #0
10002ec6:	f000 fa1f 	bl	10003308 <usbd_control_set_complete_callback>
10002eca:	f895 3035 	ldrb.w	r3, [r5, #53]	; 0x35
10002ece:	07de      	lsls	r6, r3, #31
10002ed0:	f53f ad01 	bmi.w	100028d6 <tud_task_ext+0x1e>
10002ed4:	e690      	b.n	10002bf8 <tud_task_ext+0x340>
10002ed6:	f7ff fc65 	bl	100027a4 <tud_umount_cb>
10002eda:	4640      	mov	r0, r8
10002edc:	a908      	add	r1, sp, #32
10002ede:	f000 f9b1 	bl	10003244 <tud_control_status>
10002ee2:	e4f8      	b.n	100028d6 <tud_task_ext+0x1e>
10002ee4:	4632      	mov	r2, r6
10002ee6:	2a01      	cmp	r2, #1
10002ee8:	461e      	mov	r6, r3
10002eea:	4613      	mov	r3, r2
10002eec:	f000 80a0 	beq.w	10003030 <tud_task_ext+0x778>
10002ef0:	2a00      	cmp	r2, #0
10002ef2:	f000 808e 	beq.w	10003012 <tud_task_ext+0x75a>
10002ef6:	2200      	movs	r2, #0
10002ef8:	78b7      	ldrb	r7, [r6, #2]
10002efa:	e005      	b.n	10002f08 <tud_task_ext+0x650>
10002efc:	f881 8004 	strb.w	r8, [r1, #4]
10002f00:	b2d1      	uxtb	r1, r2
10002f02:	428b      	cmp	r3, r1
10002f04:	f240 8085 	bls.w	10003012 <tud_task_ext+0x75a>
10002f08:	18b9      	adds	r1, r7, r2
10002f0a:	fa55 f181 	uxtab	r1, r5, r1
10002f0e:	f891 c004 	ldrb.w	ip, [r1, #4]
10002f12:	3201      	adds	r2, #1
10002f14:	f1bc 0fff 	cmp.w	ip, #255	; 0xff
10002f18:	d0f0      	beq.n	10002efc <tud_task_ext+0x644>
10002f1a:	f04f 23e0 	mov.w	r3, #3758153728	; 0xe000e000
10002f1e:	f8d3 3df0 	ldr.w	r3, [r3, #3568]	; 0xdf0
10002f22:	07db      	lsls	r3, r3, #31
10002f24:	d500      	bpl.n	10002f28 <tud_task_ext+0x670>
10002f26:	be00      	bkpt	0x0000
10002f28:	f04f 23e0 	mov.w	r3, #3758153728	; 0xe000e000
10002f2c:	f8d3 3df0 	ldr.w	r3, [r3, #3568]	; 0xdf0
10002f30:	07df      	lsls	r7, r3, #31
10002f32:	d500      	bpl.n	10002f36 <tud_task_ext+0x67e>
10002f34:	be00      	bkpt	0x0000
10002f36:	2300      	movs	r3, #0
10002f38:	706b      	strb	r3, [r5, #1]
10002f3a:	e571      	b.n	10002a20 <tud_task_ext+0x168>
10002f3c:	f7fe ffb4 	bl	10001ea8 <tud_descriptor_bos_cb>
10002f40:	4602      	mov	r2, r0
10002f42:	2800      	cmp	r0, #0
10002f44:	f47f af53 	bne.w	10002dee <tud_task_ext+0x536>
10002f48:	e56a      	b.n	10002a20 <tud_task_ext+0x168>
10002f4a:	f7ff f9d5 	bl	100022f8 <tud_descriptor_device_cb>
10002f4e:	4602      	mov	r2, r0
10002f50:	2800      	cmp	r0, #0
10002f52:	f43f ad5e 	beq.w	10002a12 <tud_task_ext+0x15a>
10002f56:	4640      	mov	r0, r8
10002f58:	2312      	movs	r3, #18
10002f5a:	a908      	add	r1, sp, #32
10002f5c:	f000 f98c 	bl	10003278 <tud_control_xfer>
10002f60:	2800      	cmp	r0, #0
10002f62:	f47f acb8 	bne.w	100028d6 <tud_task_ext+0x1e>
10002f66:	e55b      	b.n	10002a20 <tud_task_ext+0x168>
10002f68:	f7ff fc16 	bl	10002798 <tud_descriptor_device_qualifier_cb>
10002f6c:	4602      	mov	r2, r0
10002f6e:	2800      	cmp	r0, #0
10002f70:	f43f ad56 	beq.w	10002a20 <tud_task_ext+0x168>
10002f74:	4640      	mov	r0, r8
10002f76:	7813      	ldrb	r3, [r2, #0]
10002f78:	a908      	add	r1, sp, #32
10002f7a:	f000 f97d 	bl	10003278 <tud_control_xfer>
10002f7e:	2800      	cmp	r0, #0
10002f80:	f47f aca9 	bne.w	100028d6 <tud_task_ext+0x1e>
10002f84:	e54c      	b.n	10002a20 <tud_task_ext+0x168>
10002f86:	f8bd 1024 	ldrh.w	r1, [sp, #36]	; 0x24
10002f8a:	f7ff f9bd 	bl	10002308 <tud_descriptor_string_cb>
10002f8e:	4602      	mov	r2, r0
10002f90:	2800      	cmp	r0, #0
10002f92:	d1ef      	bne.n	10002f74 <tud_task_ext+0x6bc>
10002f94:	e544      	b.n	10002a20 <tud_task_ext+0x168>
10002f96:	f899 0000 	ldrb.w	r0, [r9]
10002f9a:	9302      	str	r3, [sp, #8]
10002f9c:	f7ff fb56 	bl	1000264c <dcd_edpt_clear_stall>
10002fa0:	9b01      	ldr	r3, [sp, #4]
10002fa2:	19aa      	adds	r2, r5, r6
10002fa4:	441a      	add	r2, r3
10002fa6:	f892 1034 	ldrb.w	r1, [r2, #52]	; 0x34
10002faa:	9b02      	ldr	r3, [sp, #8]
10002fac:	f363 0141 	bfi	r1, r3, #1, #1
10002fb0:	f882 1034 	strb.w	r1, [r2, #52]	; 0x34
10002fb4:	f892 1034 	ldrb.w	r1, [r2, #52]	; 0x34
10002fb8:	f363 0100 	bfi	r1, r3, #0, #1
10002fbc:	f882 1034 	strb.w	r1, [r2, #52]	; 0x34
10002fc0:	e775      	b.n	10002eae <tud_task_ext+0x5f6>
10002fc2:	2100      	movs	r1, #0
10002fc4:	4640      	mov	r0, r8
10002fc6:	f7ff fa79 	bl	100024bc <dcd_sof_enable>
10002fca:	4640      	mov	r0, r8
10002fcc:	f7ff fb10 	bl	100025f0 <dcd_edpt_close_all>
10002fd0:	78af      	ldrb	r7, [r5, #2]
10002fd2:	4640      	mov	r0, r8
10002fd4:	f7ff fb96 	bl	10002704 <configuration_reset>
10002fd8:	70af      	strb	r7, [r5, #2]
10002fda:	e62e      	b.n	10002c3a <tud_task_ext+0x382>
10002fdc:	f8dd 800c 	ldr.w	r8, [sp, #12]
10002fe0:	f7ff fbde 	bl	100027a0 <tud_mount_cb>
10002fe4:	e779      	b.n	10002eda <tud_task_ext+0x622>
10002fe6:	4640      	mov	r0, r8
10002fe8:	2301      	movs	r3, #1
10002fea:	a908      	add	r1, sp, #32
10002fec:	f10d 021a 	add.w	r2, sp, #26
10002ff0:	f88d 501a 	strb.w	r5, [sp, #26]
10002ff4:	f000 f940 	bl	10003278 <tud_control_xfer>
10002ff8:	e46d      	b.n	100028d6 <tud_task_ext+0x1e>
10002ffa:	7832      	ldrb	r2, [r6, #0]
10002ffc:	78f3      	ldrb	r3, [r6, #3]
10002ffe:	4416      	add	r6, r2
10003000:	7872      	ldrb	r2, [r6, #1]
10003002:	e646      	b.n	10002c92 <tud_task_ext+0x3da>
10003004:	f7ff f97c 	bl	10002300 <tud_descriptor_configuration_cb>
10003008:	4602      	mov	r2, r0
1000300a:	2800      	cmp	r0, #0
1000300c:	f47f aeef 	bne.w	10002dee <tud_task_ext+0x536>
10003010:	e4ff      	b.n	10002a12 <tud_task_ext+0x15a>
10003012:	4602      	mov	r2, r0
10003014:	4643      	mov	r3, r8
10003016:	4631      	mov	r1, r6
10003018:	4406      	add	r6, r0
1000301a:	480d      	ldr	r0, [pc, #52]	; (10003050 <tud_task_ext+0x798>)
1000301c:	f000 fe56 	bl	10003ccc <tu_edpt_bind_driver>
10003020:	4b0c      	ldr	r3, [pc, #48]	; (10003054 <tud_task_ext+0x79c>)
10003022:	9a01      	ldr	r2, [sp, #4]
10003024:	781b      	ldrb	r3, [r3, #0]
10003026:	3301      	adds	r3, #1
10003028:	429a      	cmp	r2, r3
1000302a:	f77f ae29 	ble.w	10002c80 <tud_task_ext+0x3c8>
1000302e:	e774      	b.n	10002f1a <tud_task_ext+0x662>
10003030:	693a      	ldr	r2, [r7, #16]
10003032:	4909      	ldr	r1, [pc, #36]	; (10003058 <tud_task_ext+0x7a0>)
10003034:	428a      	cmp	r2, r1
10003036:	bf08      	it	eq
10003038:	2302      	moveq	r3, #2
1000303a:	e75c      	b.n	10002ef6 <tud_task_ext+0x63e>
1000303c:	f04f 23e0 	mov.w	r3, #3758153728	; 0xe000e000
10003040:	f8d3 3df0 	ldr.w	r3, [r3, #3568]	; 0xdf0
10003044:	07db      	lsls	r3, r3, #31
10003046:	f57f ac46 	bpl.w	100028d6 <tud_task_ext+0x1e>
1000304a:	be00      	bkpt	0x0000
1000304c:	e443      	b.n	100028d6 <tud_task_ext+0x1e>
1000304e:	bf00      	nop
10003050:	20000fbc 	.word	0x20000fbc
10003054:	20001851 	.word	0x20001851
10003058:	100036a9 	.word	0x100036a9

1000305c <usbd_edpt_open>:
1000305c:	b538      	push	{r3, r4, r5, lr}
1000305e:	788b      	ldrb	r3, [r1, #2]
10003060:	f013 0f70 	tst.w	r3, #112	; 0x70
10003064:	d008      	beq.n	10003078 <usbd_edpt_open+0x1c>
10003066:	f04f 23e0 	mov.w	r3, #3758153728	; 0xe000e000
1000306a:	f8d3 3df0 	ldr.w	r3, [r3, #3568]	; 0xdf0
1000306e:	07db      	lsls	r3, r3, #31
10003070:	d500      	bpl.n	10003074 <usbd_edpt_open+0x18>
10003072:	be00      	bkpt	0x0000
10003074:	2000      	movs	r0, #0
10003076:	bd38      	pop	{r3, r4, r5, pc}
10003078:	4a07      	ldr	r2, [pc, #28]	; (10003098 <usbd_edpt_open+0x3c>)
1000307a:	4b08      	ldr	r3, [pc, #32]	; (1000309c <usbd_edpt_open+0x40>)
1000307c:	460c      	mov	r4, r1
1000307e:	4608      	mov	r0, r1
10003080:	7891      	ldrb	r1, [r2, #2]
10003082:	781d      	ldrb	r5, [r3, #0]
10003084:	f000 fdee 	bl	10003c64 <tu_edpt_validate>
10003088:	2800      	cmp	r0, #0
1000308a:	d0ec      	beq.n	10003066 <usbd_edpt_open+0xa>
1000308c:	4621      	mov	r1, r4
1000308e:	4628      	mov	r0, r5
10003090:	e8bd 4038 	ldmia.w	sp!, {r3, r4, r5, lr}
10003094:	f7ff ba2e 	b.w	100024f4 <dcd_edpt_open>
10003098:	20000fa8 	.word	0x20000fa8
1000309c:	20000aa0 	.word	0x20000aa0

100030a0 <usbd_open_edpt_pair>:
100030a0:	e92d 47f0 	stmdb	sp!, {r4, r5, r6, r7, r8, r9, sl, lr}
100030a4:	e9dd 8908 	ldrd	r8, r9, [sp, #32]
100030a8:	b352      	cbz	r2, 10003100 <usbd_open_edpt_pair+0x60>
100030aa:	4607      	mov	r7, r0
100030ac:	460c      	mov	r4, r1
100030ae:	461e      	mov	r6, r3
100030b0:	4615      	mov	r5, r2
100030b2:	f04f 0a00 	mov.w	sl, #0
100030b6:	e016      	b.n	100030e6 <usbd_open_edpt_pair+0x46>
100030b8:	78e3      	ldrb	r3, [r4, #3]
100030ba:	f003 0303 	and.w	r3, r3, #3
100030be:	42b3      	cmp	r3, r6
100030c0:	d114      	bne.n	100030ec <usbd_open_edpt_pair+0x4c>
100030c2:	4621      	mov	r1, r4
100030c4:	4638      	mov	r0, r7
100030c6:	f7ff ffc9 	bl	1000305c <usbd_edpt_open>
100030ca:	b1e0      	cbz	r0, 10003106 <usbd_open_edpt_pair+0x66>
100030cc:	78a3      	ldrb	r3, [r4, #2]
100030ce:	f10a 0a01 	add.w	sl, sl, #1
100030d2:	09da      	lsrs	r2, r3, #7
100030d4:	bf14      	ite	ne
100030d6:	f889 3000 	strbne.w	r3, [r9]
100030da:	f888 3000 	strbeq.w	r3, [r8]
100030de:	7823      	ldrb	r3, [r4, #0]
100030e0:	45aa      	cmp	sl, r5
100030e2:	441c      	add	r4, r3
100030e4:	d00c      	beq.n	10003100 <usbd_open_edpt_pair+0x60>
100030e6:	7863      	ldrb	r3, [r4, #1]
100030e8:	2b05      	cmp	r3, #5
100030ea:	d0e5      	beq.n	100030b8 <usbd_open_edpt_pair+0x18>
100030ec:	f04f 23e0 	mov.w	r3, #3758153728	; 0xe000e000
100030f0:	f8d3 3df0 	ldr.w	r3, [r3, #3568]	; 0xdf0
100030f4:	07da      	lsls	r2, r3, #31
100030f6:	d500      	bpl.n	100030fa <usbd_open_edpt_pair+0x5a>
100030f8:	be00      	bkpt	0x0000
100030fa:	2000      	movs	r0, #0
100030fc:	e8bd 87f0 	ldmia.w	sp!, {r4, r5, r6, r7, r8, r9, sl, pc}
10003100:	2001      	movs	r0, #1
10003102:	e8bd 87f0 	ldmia.w	sp!, {r4, r5, r6, r7, r8, r9, sl, pc}
10003106:	f04f 23e0 	mov.w	r3, #3758153728	; 0xe000e000
1000310a:	f8d3 3df0 	ldr.w	r3, [r3, #3568]	; 0xdf0
1000310e:	07db      	lsls	r3, r3, #31
10003110:	d5f3      	bpl.n	100030fa <usbd_open_edpt_pair+0x5a>
10003112:	be00      	bkpt	0x0000
10003114:	e8bd 87f0 	ldmia.w	sp!, {r4, r5, r6, r7, r8, r9, sl, pc}

10003118 <usbd_edpt_claim>:
10003118:	460b      	mov	r3, r1
1000311a:	4a06      	ldr	r2, [pc, #24]	; (10003134 <usbd_edpt_claim+0x1c>)
1000311c:	4806      	ldr	r0, [pc, #24]	; (10003138 <usbd_edpt_claim+0x20>)
1000311e:	6811      	ldr	r1, [r2, #0]
10003120:	09da      	lsrs	r2, r3, #7
10003122:	3234      	adds	r2, #52	; 0x34
10003124:	f003 037f 	and.w	r3, r3, #127	; 0x7f
10003128:	eb02 0343 	add.w	r3, r2, r3, lsl #1
1000312c:	4418      	add	r0, r3
1000312e:	f000 bd53 	b.w	10003bd8 <tu_edpt_claim>
10003132:	bf00      	nop
10003134:	20000ffc 	.word	0x20000ffc
10003138:	20000fa8 	.word	0x20000fa8

1000313c <usbd_edpt_release>:
1000313c:	460b      	mov	r3, r1
1000313e:	4a06      	ldr	r2, [pc, #24]	; (10003158 <usbd_edpt_release+0x1c>)
10003140:	4806      	ldr	r0, [pc, #24]	; (1000315c <usbd_edpt_release+0x20>)
10003142:	6811      	ldr	r1, [r2, #0]
10003144:	09da      	lsrs	r2, r3, #7
10003146:	3234      	adds	r2, #52	; 0x34
10003148:	f003 037f 	and.w	r3, r3, #127	; 0x7f
1000314c:	eb02 0343 	add.w	r3, r2, r3, lsl #1
10003150:	4418      	add	r0, r3
10003152:	f000 bd6b 	b.w	10003c2c <tu_edpt_release>
10003156:	bf00      	nop
10003158:	20000ffc 	.word	0x20000ffc
1000315c:	20000fa8 	.word	0x20000fa8

10003160 <usbd_edpt_xfer>:
10003160:	b510      	push	{r4, lr}
10003162:	4c19      	ldr	r4, [pc, #100]	; (100031c8 <usbd_edpt_xfer+0x68>)
10003164:	f001 0c7f 	and.w	ip, r1, #127	; 0x7f
10003168:	eb04 044c 	add.w	r4, r4, ip, lsl #1
1000316c:	eb04 10d1 	add.w	r0, r4, r1, lsr #7
10003170:	f890 c034 	ldrb.w	ip, [r0, #52]	; 0x34
10003174:	f01c 0f01 	tst.w	ip, #1
10003178:	d008      	beq.n	1000318c <usbd_edpt_xfer+0x2c>
1000317a:	f04f 23e0 	mov.w	r3, #3758153728	; 0xe000e000
1000317e:	f8d3 3df0 	ldr.w	r3, [r3, #3568]	; 0xdf0
10003182:	07da      	lsls	r2, r3, #31
10003184:	d500      	bpl.n	10003188 <usbd_edpt_xfer+0x28>
10003186:	be00      	bkpt	0x0000
10003188:	2000      	movs	r0, #0
1000318a:	bd10      	pop	{r4, pc}
1000318c:	f890 c034 	ldrb.w	ip, [r0, #52]	; 0x34
10003190:	f100 0430 	add.w	r4, r0, #48	; 0x30
10003194:	480d      	ldr	r0, [pc, #52]	; (100031cc <usbd_edpt_xfer+0x6c>)
10003196:	f04c 0c01 	orr.w	ip, ip, #1
1000319a:	7800      	ldrb	r0, [r0, #0]
1000319c:	f884 c004 	strb.w	ip, [r4, #4]
100031a0:	f7ff fa28 	bl	100025f4 <dcd_edpt_xfer>
100031a4:	2800      	cmp	r0, #0
100031a6:	d1f0      	bne.n	1000318a <usbd_edpt_xfer+0x2a>
100031a8:	f04f 22e0 	mov.w	r2, #3758153728	; 0xe000e000
100031ac:	7923      	ldrb	r3, [r4, #4]
100031ae:	f360 0300 	bfi	r3, r0, #0, #1
100031b2:	7123      	strb	r3, [r4, #4]
100031b4:	7923      	ldrb	r3, [r4, #4]
100031b6:	f360 0382 	bfi	r3, r0, #2, #1
100031ba:	7123      	strb	r3, [r4, #4]
100031bc:	f8d2 3df0 	ldr.w	r3, [r2, #3568]	; 0xdf0
100031c0:	07db      	lsls	r3, r3, #31
100031c2:	d5e1      	bpl.n	10003188 <usbd_edpt_xfer+0x28>
100031c4:	be00      	bkpt	0x0000
100031c6:	bd10      	pop	{r4, pc}
100031c8:	20000fa8 	.word	0x20000fa8
100031cc:	20000aa0 	.word	0x20000aa0

100031d0 <_data_stage_xact>:
100031d0:	491a      	ldr	r1, [pc, #104]	; (1000323c <_data_stage_xact+0x6c>)
100031d2:	b510      	push	{r4, lr}
100031d4:	f8b1 c00c 	ldrh.w	ip, [r1, #12]
100031d8:	89ca      	ldrh	r2, [r1, #14]
100031da:	f991 e000 	ldrsb.w	lr, [r1]
100031de:	ebac 0302 	sub.w	r3, ip, r2
100031e2:	b29b      	uxth	r3, r3
100031e4:	2b40      	cmp	r3, #64	; 0x40
100031e6:	bf28      	it	cs
100031e8:	2340      	movcs	r3, #64	; 0x40
100031ea:	f1be 0f00 	cmp.w	lr, #0
100031ee:	4604      	mov	r4, r0
100031f0:	b082      	sub	sp, #8
100031f2:	db12      	blt.n	1000321a <_data_stage_xact+0x4a>
100031f4:	4594      	cmp	ip, r2
100031f6:	f04f 0100 	mov.w	r1, #0
100031fa:	d007      	beq.n	1000320c <_data_stage_xact+0x3c>
100031fc:	4620      	mov	r0, r4
100031fe:	4a10      	ldr	r2, [pc, #64]	; (10003240 <_data_stage_xact+0x70>)
10003200:	b002      	add	sp, #8
10003202:	e8bd 4010 	ldmia.w	sp!, {r4, lr}
10003206:	f7ff bfab 	b.w	10003160 <usbd_edpt_xfer>
1000320a:	2180      	movs	r1, #128	; 0x80
1000320c:	2200      	movs	r2, #0
1000320e:	4620      	mov	r0, r4
10003210:	b002      	add	sp, #8
10003212:	e8bd 4010 	ldmia.w	sp!, {r4, lr}
10003216:	f7ff bfa3 	b.w	10003160 <usbd_edpt_xfer>
1000321a:	4594      	cmp	ip, r2
1000321c:	d0f5      	beq.n	1000320a <_data_stage_xact+0x3a>
1000321e:	461a      	mov	r2, r3
10003220:	6889      	ldr	r1, [r1, #8]
10003222:	4807      	ldr	r0, [pc, #28]	; (10003240 <_data_stage_xact+0x70>)
10003224:	9301      	str	r3, [sp, #4]
10003226:	f000 ffc7 	bl	100041b8 <memcpy>
1000322a:	2180      	movs	r1, #128	; 0x80
1000322c:	4620      	mov	r0, r4
1000322e:	4a04      	ldr	r2, [pc, #16]	; (10003240 <_data_stage_xact+0x70>)
10003230:	9b01      	ldr	r3, [sp, #4]
10003232:	b002      	add	sp, #8
10003234:	e8bd 4010 	ldmia.w	sp!, {r4, lr}
10003238:	f7ff bf92 	b.w	10003160 <usbd_edpt_xfer>
1000323c:	20000f2c 	.word	0x20000f2c
10003240:	20000f68 	.word	0x20000f68

10003244 <tud_control_status>:
10003244:	b530      	push	{r4, r5, lr}
10003246:	4c0b      	ldr	r4, [pc, #44]	; (10003274 <tud_control_status+0x30>)
10003248:	468c      	mov	ip, r1
1000324a:	46a6      	mov	lr, r4
1000324c:	2300      	movs	r3, #0
1000324e:	4605      	mov	r5, r0
10003250:	6808      	ldr	r0, [r1, #0]
10003252:	6849      	ldr	r1, [r1, #4]
10003254:	461a      	mov	r2, r3
10003256:	e8ae 0003 	stmia.w	lr!, {r0, r1}
1000325a:	f99c 1000 	ldrsb.w	r1, [ip]
1000325e:	4628      	mov	r0, r5
10003260:	4299      	cmp	r1, r3
10003262:	e9c4 3302 	strd	r3, r3, [r4, #8]
10003266:	e8bd 4030 	ldmia.w	sp!, {r4, r5, lr}
1000326a:	bfac      	ite	ge
1000326c:	2180      	movge	r1, #128	; 0x80
1000326e:	4619      	movlt	r1, r3
10003270:	f7ff bf76 	b.w	10003160 <usbd_edpt_xfer>
10003274:	20000f2c 	.word	0x20000f2c

10003278 <tud_control_xfer>:
10003278:	b570      	push	{r4, r5, r6, lr}
1000327a:	4c1d      	ldr	r4, [pc, #116]	; (100032f0 <tud_control_xfer+0x78>)
1000327c:	2600      	movs	r6, #0
1000327e:	46a6      	mov	lr, r4
10003280:	468c      	mov	ip, r1
10003282:	4605      	mov	r5, r0
10003284:	6808      	ldr	r0, [r1, #0]
10003286:	6849      	ldr	r1, [r1, #4]
10003288:	81e6      	strh	r6, [r4, #14]
1000328a:	e8ae 0003 	stmia.w	lr!, {r0, r1}
1000328e:	60a2      	str	r2, [r4, #8]
10003290:	f8bc 1006 	ldrh.w	r1, [ip, #6]
10003294:	428b      	cmp	r3, r1
10003296:	bf28      	it	cs
10003298:	460b      	movcs	r3, r1
1000329a:	81a3      	strh	r3, [r4, #12]
1000329c:	b139      	cbz	r1, 100032ae <tud_control_xfer+0x36>
1000329e:	b103      	cbz	r3, 100032a2 <tud_control_xfer+0x2a>
100032a0:	b1d2      	cbz	r2, 100032d8 <tud_control_xfer+0x60>
100032a2:	4628      	mov	r0, r5
100032a4:	f7ff ff94 	bl	100031d0 <_data_stage_xact>
100032a8:	b170      	cbz	r0, 100032c8 <tud_control_xfer+0x50>
100032aa:	2001      	movs	r0, #1
100032ac:	bd70      	pop	{r4, r5, r6, pc}
100032ae:	f99c 2000 	ldrsb.w	r2, [ip]
100032b2:	460b      	mov	r3, r1
100032b4:	2a00      	cmp	r2, #0
100032b6:	4628      	mov	r0, r5
100032b8:	460a      	mov	r2, r1
100032ba:	bfac      	ite	ge
100032bc:	2180      	movge	r1, #128	; 0x80
100032be:	2100      	movlt	r1, #0
100032c0:	f7ff ff4e 	bl	10003160 <usbd_edpt_xfer>
100032c4:	2800      	cmp	r0, #0
100032c6:	d1f0      	bne.n	100032aa <tud_control_xfer+0x32>
100032c8:	f04f 23e0 	mov.w	r3, #3758153728	; 0xe000e000
100032cc:	f8d3 3df0 	ldr.w	r3, [r3, #3568]	; 0xdf0
100032d0:	07db      	lsls	r3, r3, #31
100032d2:	d507      	bpl.n	100032e4 <tud_control_xfer+0x6c>
100032d4:	be00      	bkpt	0x0000
100032d6:	bd70      	pop	{r4, r5, r6, pc}
100032d8:	f04f 23e0 	mov.w	r3, #3758153728	; 0xe000e000
100032dc:	f8d3 3df0 	ldr.w	r3, [r3, #3568]	; 0xdf0
100032e0:	07d9      	lsls	r1, r3, #31
100032e2:	d401      	bmi.n	100032e8 <tud_control_xfer+0x70>
100032e4:	2000      	movs	r0, #0
100032e6:	bd70      	pop	{r4, r5, r6, pc}
100032e8:	be00      	bkpt	0x0000
100032ea:	4610      	mov	r0, r2
100032ec:	bd70      	pop	{r4, r5, r6, pc}
100032ee:	bf00      	nop
100032f0:	20000f2c 	.word	0x20000f2c

100032f4 <usbd_control_reset>:
100032f4:	2200      	movs	r2, #0
100032f6:	4b03      	ldr	r3, [pc, #12]	; (10003304 <usbd_control_reset+0x10>)
100032f8:	e9c3 2200 	strd	r2, r2, [r3]
100032fc:	e9c3 2202 	strd	r2, r2, [r3, #8]
10003300:	611a      	str	r2, [r3, #16]
10003302:	4770      	bx	lr
10003304:	20000f2c 	.word	0x20000f2c

10003308 <usbd_control_set_complete_callback>:
10003308:	4b01      	ldr	r3, [pc, #4]	; (10003310 <usbd_control_set_complete_callback+0x8>)
1000330a:	6118      	str	r0, [r3, #16]
1000330c:	4770      	bx	lr
1000330e:	bf00      	nop
10003310:	20000f2c 	.word	0x20000f2c

10003314 <usbd_control_set_request>:
10003314:	b430      	push	{r4, r5}
10003316:	4602      	mov	r2, r0
10003318:	4c04      	ldr	r4, [pc, #16]	; (1000332c <usbd_control_set_request+0x18>)
1000331a:	2500      	movs	r5, #0
1000331c:	4623      	mov	r3, r4
1000331e:	6800      	ldr	r0, [r0, #0]
10003320:	6851      	ldr	r1, [r2, #4]
10003322:	e9c4 5502 	strd	r5, r5, [r4, #8]
10003326:	bc30      	pop	{r4, r5}
10003328:	c303      	stmia	r3!, {r0, r1}
1000332a:	4770      	bx	lr
1000332c:	20000f2c 	.word	0x20000f2c

10003330 <usbd_control_xfer_cb>:
10003330:	b570      	push	{r4, r5, r6, lr}
10003332:	4c30      	ldr	r4, [pc, #192]	; (100033f4 <usbd_control_xfer_cb+0xc4>)
10003334:	09c9      	lsrs	r1, r1, #7
10003336:	7822      	ldrb	r2, [r4, #0]
10003338:	4605      	mov	r5, r0
1000333a:	ebb1 1fd2 	cmp.w	r1, r2, lsr #7
1000333e:	461e      	mov	r6, r3
10003340:	d01e      	beq.n	10003380 <usbd_control_xfer_cb+0x50>
10003342:	b143      	cbz	r3, 10003356 <usbd_control_xfer_cb+0x26>
10003344:	f04f 23e0 	mov.w	r3, #3758153728	; 0xe000e000
10003348:	f8d3 3df0 	ldr.w	r3, [r3, #3568]	; 0xdf0
1000334c:	07da      	lsls	r2, r3, #31
1000334e:	d500      	bpl.n	10003352 <usbd_control_xfer_cb+0x22>
10003350:	be00      	bkpt	0x0000
10003352:	2000      	movs	r0, #0
10003354:	bd70      	pop	{r4, r5, r6, pc}
10003356:	4621      	mov	r1, r4
10003358:	f7ff f8be 	bl	100024d8 <dcd_edpt0_status_complete>
1000335c:	6923      	ldr	r3, [r4, #16]
1000335e:	b16b      	cbz	r3, 1000337c <usbd_control_xfer_cb+0x4c>
10003360:	4622      	mov	r2, r4
10003362:	2103      	movs	r1, #3
10003364:	4628      	mov	r0, r5
10003366:	4798      	blx	r3
10003368:	2001      	movs	r0, #1
1000336a:	bd70      	pop	{r4, r5, r6, pc}
1000336c:	4601      	mov	r1, r0
1000336e:	4628      	mov	r0, r5
10003370:	f7ff f954 	bl	1000261c <dcd_edpt_stall>
10003374:	2180      	movs	r1, #128	; 0x80
10003376:	4628      	mov	r0, r5
10003378:	f7ff f950 	bl	1000261c <dcd_edpt_stall>
1000337c:	2001      	movs	r0, #1
1000337e:	bd70      	pop	{r4, r5, r6, pc}
10003380:	f994 2000 	ldrsb.w	r2, [r4]
10003384:	2a00      	cmp	r2, #0
10003386:	db06      	blt.n	10003396 <usbd_control_xfer_cb+0x66>
10003388:	68a0      	ldr	r0, [r4, #8]
1000338a:	2800      	cmp	r0, #0
1000338c:	d0e1      	beq.n	10003352 <usbd_control_xfer_cb+0x22>
1000338e:	461a      	mov	r2, r3
10003390:	4919      	ldr	r1, [pc, #100]	; (100033f8 <usbd_control_xfer_cb+0xc8>)
10003392:	f000 ff11 	bl	100041b8 <memcpy>
10003396:	68a1      	ldr	r1, [r4, #8]
10003398:	89e2      	ldrh	r2, [r4, #14]
1000339a:	4431      	add	r1, r6
1000339c:	4432      	add	r2, r6
1000339e:	60a1      	str	r1, [r4, #8]
100033a0:	88e1      	ldrh	r1, [r4, #6]
100033a2:	b292      	uxth	r2, r2
100033a4:	4291      	cmp	r1, r2
100033a6:	81e2      	strh	r2, [r4, #14]
100033a8:	d007      	beq.n	100033ba <usbd_control_xfer_cb+0x8a>
100033aa:	2e3f      	cmp	r6, #63	; 0x3f
100033ac:	d905      	bls.n	100033ba <usbd_control_xfer_cb+0x8a>
100033ae:	4628      	mov	r0, r5
100033b0:	f7ff ff0e 	bl	100031d0 <_data_stage_xact>
100033b4:	2800      	cmp	r0, #0
100033b6:	d1e1      	bne.n	1000337c <usbd_control_xfer_cb+0x4c>
100033b8:	e014      	b.n	100033e4 <usbd_control_xfer_cb+0xb4>
100033ba:	6923      	ldr	r3, [r4, #16]
100033bc:	b12b      	cbz	r3, 100033ca <usbd_control_xfer_cb+0x9a>
100033be:	2102      	movs	r1, #2
100033c0:	4628      	mov	r0, r5
100033c2:	4a0c      	ldr	r2, [pc, #48]	; (100033f4 <usbd_control_xfer_cb+0xc4>)
100033c4:	4798      	blx	r3
100033c6:	2800      	cmp	r0, #0
100033c8:	d0d0      	beq.n	1000336c <usbd_control_xfer_cb+0x3c>
100033ca:	2300      	movs	r3, #0
100033cc:	f994 2000 	ldrsb.w	r2, [r4]
100033d0:	4628      	mov	r0, r5
100033d2:	429a      	cmp	r2, r3
100033d4:	bfac      	ite	ge
100033d6:	2180      	movge	r1, #128	; 0x80
100033d8:	4619      	movlt	r1, r3
100033da:	461a      	mov	r2, r3
100033dc:	f7ff fec0 	bl	10003160 <usbd_edpt_xfer>
100033e0:	2800      	cmp	r0, #0
100033e2:	d1cb      	bne.n	1000337c <usbd_control_xfer_cb+0x4c>
100033e4:	f04f 23e0 	mov.w	r3, #3758153728	; 0xe000e000
100033e8:	f8d3 3df0 	ldr.w	r3, [r3, #3568]	; 0xdf0
100033ec:	07db      	lsls	r3, r3, #31
100033ee:	d5b0      	bpl.n	10003352 <usbd_control_xfer_cb+0x22>
100033f0:	be00      	bkpt	0x0000
100033f2:	bd70      	pop	{r4, r5, r6, pc}
100033f4:	20000f2c 	.word	0x20000f2c
100033f8:	20000f68 	.word	0x20000f68

100033fc <_prep_out_transaction.isra.0>:
100033fc:	b570      	push	{r4, r5, r6, lr}
100033fe:	4604      	mov	r4, r0
10003400:	f7ff f9d6 	bl	100027b0 <tud_mounted>
10003404:	b900      	cbnz	r0, 10003408 <_prep_out_transaction.isra.0+0xc>
10003406:	bd70      	pop	{r4, r5, r6, pc}
10003408:	f7ff f9da 	bl	100027c0 <tud_suspended>
1000340c:	4605      	mov	r5, r0
1000340e:	2800      	cmp	r0, #0
10003410:	d1f9      	bne.n	10003406 <_prep_out_transaction.isra.0+0xa>
10003412:	78e3      	ldrb	r3, [r4, #3]
10003414:	2b00      	cmp	r3, #0
10003416:	d0f6      	beq.n	10003406 <_prep_out_transaction.isra.0+0xa>
10003418:	f104 0610 	add.w	r6, r4, #16
1000341c:	4630      	mov	r0, r6
1000341e:	f000 fd41 	bl	10003ea4 <tu_fifo_remaining>
10003422:	283f      	cmp	r0, #63	; 0x3f
10003424:	d9ef      	bls.n	10003406 <_prep_out_transaction.isra.0+0xa>
10003426:	4628      	mov	r0, r5
10003428:	78e1      	ldrb	r1, [r4, #3]
1000342a:	f7ff fe75 	bl	10003118 <usbd_edpt_claim>
1000342e:	2800      	cmp	r0, #0
10003430:	d0e9      	beq.n	10003406 <_prep_out_transaction.isra.0+0xa>
10003432:	4630      	mov	r0, r6
10003434:	f000 fd36 	bl	10003ea4 <tu_fifo_remaining>
10003438:	283f      	cmp	r0, #63	; 0x3f
1000343a:	d908      	bls.n	1000344e <_prep_out_transaction.isra.0+0x52>
1000343c:	4628      	mov	r0, r5
1000343e:	78e1      	ldrb	r1, [r4, #3]
10003440:	f504 7212 	add.w	r2, r4, #584	; 0x248
10003444:	2340      	movs	r3, #64	; 0x40
10003446:	e8bd 4070 	ldmia.w	sp!, {r4, r5, r6, lr}
1000344a:	f7ff be89 	b.w	10003160 <usbd_edpt_xfer>
1000344e:	4628      	mov	r0, r5
10003450:	78e1      	ldrb	r1, [r4, #3]
10003452:	e8bd 4070 	ldmia.w	sp!, {r4, r5, r6, lr}
10003456:	f7ff be71 	b.w	1000313c <usbd_edpt_release>
1000345a:	bf00      	nop

1000345c <tud_cdc_n_connected>:
1000345c:	b510      	push	{r4, lr}
1000345e:	4604      	mov	r4, r0
10003460:	f7ff f9a6 	bl	100027b0 <tud_mounted>
10003464:	b908      	cbnz	r0, 1000346a <tud_cdc_n_connected+0xe>
10003466:	2000      	movs	r0, #0
10003468:	bd10      	pop	{r4, pc}
1000346a:	f7ff f9a9 	bl	100027c0 <tud_suspended>
1000346e:	2800      	cmp	r0, #0
10003470:	d1f9      	bne.n	10003466 <tud_cdc_n_connected+0xa>
10003472:	f44f 7332 	mov.w	r3, #712	; 0x2c8
10003476:	4803      	ldr	r0, [pc, #12]	; (10003484 <tud_cdc_n_connected+0x28>)
10003478:	fb03 0004 	mla	r0, r3, r4, r0
1000347c:	7900      	ldrb	r0, [r0, #4]
1000347e:	f000 0001 	and.w	r0, r0, #1
10003482:	bd10      	pop	{r4, pc}
10003484:	20000c64 	.word	0x20000c64

10003488 <tud_cdc_n_available>:
10003488:	f44f 7232 	mov.w	r2, #712	; 0x2c8
1000348c:	b508      	push	{r3, lr}
1000348e:	4b03      	ldr	r3, [pc, #12]	; (1000349c <tud_cdc_n_available+0x14>)
10003490:	fb02 3000 	mla	r0, r2, r0, r3
10003494:	3010      	adds	r0, #16
10003496:	f000 fceb 	bl	10003e70 <tu_fifo_count>
1000349a:	bd08      	pop	{r3, pc}
1000349c:	20000c64 	.word	0x20000c64

100034a0 <tud_cdc_n_read>:
100034a0:	b510      	push	{r4, lr}
100034a2:	f64f 7cff 	movw	ip, #65535	; 0xffff
100034a6:	f64f 7efe 	movw	lr, #65534	; 0xfffe
100034aa:	f44f 7432 	mov.w	r4, #712	; 0x2c8
100034ae:	4572      	cmp	r2, lr
100034b0:	bf98      	it	ls
100034b2:	4694      	movls	ip, r2
100034b4:	fb00 f404 	mul.w	r4, r0, r4
100034b8:	4b07      	ldr	r3, [pc, #28]	; (100034d8 <tud_cdc_n_read+0x38>)
100034ba:	f104 0010 	add.w	r0, r4, #16
100034be:	fa1f f28c 	uxth.w	r2, ip
100034c2:	4418      	add	r0, r3
100034c4:	441c      	add	r4, r3
100034c6:	f000 fd27 	bl	10003f18 <tu_fifo_read_n>
100034ca:	4603      	mov	r3, r0
100034cc:	4620      	mov	r0, r4
100034ce:	461c      	mov	r4, r3
100034d0:	f7ff ff94 	bl	100033fc <_prep_out_transaction.isra.0>
100034d4:	4620      	mov	r0, r4
100034d6:	bd10      	pop	{r4, pc}
100034d8:	20000c64 	.word	0x20000c64

100034dc <tud_cdc_n_write_flush>:
100034dc:	e92d 41f0 	stmdb	sp!, {r4, r5, r6, r7, r8, lr}
100034e0:	4604      	mov	r4, r0
100034e2:	f7ff f965 	bl	100027b0 <tud_mounted>
100034e6:	b910      	cbnz	r0, 100034ee <tud_cdc_n_write_flush+0x12>
100034e8:	2000      	movs	r0, #0
100034ea:	e8bd 81f0 	ldmia.w	sp!, {r4, r5, r6, r7, r8, pc}
100034ee:	f7ff f967 	bl	100027c0 <tud_suspended>
100034f2:	4606      	mov	r6, r0
100034f4:	2800      	cmp	r0, #0
100034f6:	d1f7      	bne.n	100034e8 <tud_cdc_n_write_flush+0xc>
100034f8:	f44f 7032 	mov.w	r0, #712	; 0x2c8
100034fc:	fb00 f404 	mul.w	r4, r0, r4
10003500:	f8df 805c 	ldr.w	r8, [pc, #92]	; 10003560 <tud_cdc_n_write_flush+0x84>
10003504:	f104 0524 	add.w	r5, r4, #36	; 0x24
10003508:	4445      	add	r5, r8
1000350a:	4628      	mov	r0, r5
1000350c:	f000 fcb0 	bl	10003e70 <tu_fifo_count>
10003510:	2800      	cmp	r0, #0
10003512:	d0e9      	beq.n	100034e8 <tud_cdc_n_write_flush+0xc>
10003514:	eb08 0704 	add.w	r7, r8, r4
10003518:	4630      	mov	r0, r6
1000351a:	78b9      	ldrb	r1, [r7, #2]
1000351c:	f7ff fdfc 	bl	10003118 <usbd_edpt_claim>
10003520:	2800      	cmp	r0, #0
10003522:	d0e1      	beq.n	100034e8 <tud_cdc_n_write_flush+0xc>
10003524:	f504 7422 	add.w	r4, r4, #648	; 0x288
10003528:	4444      	add	r4, r8
1000352a:	4628      	mov	r0, r5
1000352c:	2240      	movs	r2, #64	; 0x40
1000352e:	4621      	mov	r1, r4
10003530:	f000 fcf2 	bl	10003f18 <tu_fifo_read_n>
10003534:	4605      	mov	r5, r0
10003536:	b170      	cbz	r0, 10003556 <tud_cdc_n_write_flush+0x7a>
10003538:	4603      	mov	r3, r0
1000353a:	4622      	mov	r2, r4
1000353c:	4630      	mov	r0, r6
1000353e:	78b9      	ldrb	r1, [r7, #2]
10003540:	f7ff fe0e 	bl	10003160 <usbd_edpt_xfer>
10003544:	b950      	cbnz	r0, 1000355c <tud_cdc_n_write_flush+0x80>
10003546:	f04f 23e0 	mov.w	r3, #3758153728	; 0xe000e000
1000354a:	f8d3 3df0 	ldr.w	r3, [r3, #3568]	; 0xdf0
1000354e:	07db      	lsls	r3, r3, #31
10003550:	d5ca      	bpl.n	100034e8 <tud_cdc_n_write_flush+0xc>
10003552:	be00      	bkpt	0x0000
10003554:	e7c9      	b.n	100034ea <tud_cdc_n_write_flush+0xe>
10003556:	78b9      	ldrb	r1, [r7, #2]
10003558:	f7ff fdf0 	bl	1000313c <usbd_edpt_release>
1000355c:	4628      	mov	r0, r5
1000355e:	e7c4      	b.n	100034ea <tud_cdc_n_write_flush+0xe>
10003560:	20000c64 	.word	0x20000c64

10003564 <tud_cdc_n_write>:
10003564:	b538      	push	{r3, r4, r5, lr}
10003566:	f64f 75fe 	movw	r5, #65534	; 0xfffe
1000356a:	f64f 73ff 	movw	r3, #65535	; 0xffff
1000356e:	f44f 7c32 	mov.w	ip, #712	; 0x2c8
10003572:	42aa      	cmp	r2, r5
10003574:	bf98      	it	ls
10003576:	4613      	movls	r3, r2
10003578:	4c0b      	ldr	r4, [pc, #44]	; (100035a8 <tud_cdc_n_write+0x44>)
1000357a:	b29a      	uxth	r2, r3
1000357c:	fb0c 4400 	mla	r4, ip, r0, r4
10003580:	3424      	adds	r4, #36	; 0x24
10003582:	4605      	mov	r5, r0
10003584:	4620      	mov	r0, r4
10003586:	f000 fd37 	bl	10003ff8 <tu_fifo_write_n>
1000358a:	4603      	mov	r3, r0
1000358c:	4620      	mov	r0, r4
1000358e:	461c      	mov	r4, r3
10003590:	f000 fc6e 	bl	10003e70 <tu_fifo_count>
10003594:	283f      	cmp	r0, #63	; 0x3f
10003596:	d801      	bhi.n	1000359c <tud_cdc_n_write+0x38>
10003598:	4620      	mov	r0, r4
1000359a:	bd38      	pop	{r3, r4, r5, pc}
1000359c:	4628      	mov	r0, r5
1000359e:	f7ff ff9d 	bl	100034dc <tud_cdc_n_write_flush>
100035a2:	4620      	mov	r0, r4
100035a4:	bd38      	pop	{r3, r4, r5, pc}
100035a6:	bf00      	nop
100035a8:	20000c64 	.word	0x20000c64

100035ac <tud_cdc_n_write_available>:
100035ac:	f44f 7232 	mov.w	r2, #712	; 0x2c8
100035b0:	b508      	push	{r3, lr}
100035b2:	4b03      	ldr	r3, [pc, #12]	; (100035c0 <tud_cdc_n_write_available+0x14>)
100035b4:	fb02 3000 	mla	r0, r2, r0, r3
100035b8:	3024      	adds	r0, #36	; 0x24
100035ba:	f000 fc73 	bl	10003ea4 <tu_fifo_remaining>
100035be:	bd08      	pop	{r3, pc}
100035c0:	20000c64 	.word	0x20000c64

100035c4 <cdcd_init>:
100035c4:	b5f0      	push	{r4, r5, r6, r7, lr}
100035c6:	2500      	movs	r5, #0
100035c8:	4c1a      	ldr	r4, [pc, #104]	; (10003634 <cdcd_init+0x70>)
100035ca:	b083      	sub	sp, #12
100035cc:	4629      	mov	r1, r5
100035ce:	f44f 7232 	mov.w	r2, #712	; 0x2c8
100035d2:	4620      	mov	r0, r4
100035d4:	f000 fe66 	bl	100042a4 <memset>
100035d8:	23ff      	movs	r3, #255	; 0xff
100035da:	f44f 31e1 	mov.w	r1, #115200	; 0x1c200
100035de:	2208      	movs	r2, #8
100035e0:	4815      	ldr	r0, [pc, #84]	; (10003638 <cdcd_init+0x74>)
100035e2:	7163      	strb	r3, [r4, #5]
100035e4:	7005      	strb	r5, [r0, #0]
100035e6:	60a1      	str	r1, [r4, #8]
100035e8:	73a2      	strb	r2, [r4, #14]
100035ea:	f104 0138 	add.w	r1, r4, #56	; 0x38
100035ee:	2301      	movs	r3, #1
100035f0:	f44f 7280 	mov.w	r2, #256	; 0x100
100035f4:	9500      	str	r5, [sp, #0]
100035f6:	f104 0010 	add.w	r0, r4, #16
100035fa:	f000 fc07 	bl	10003e0c <tu_fifo_config>
100035fe:	2301      	movs	r3, #1
10003600:	f44f 7280 	mov.w	r2, #256	; 0x100
10003604:	f504 719c 	add.w	r1, r4, #312	; 0x138
10003608:	9300      	str	r3, [sp, #0]
1000360a:	f504 770e 	add.w	r7, r4, #568	; 0x238
1000360e:	f104 0024 	add.w	r0, r4, #36	; 0x24
10003612:	f000 fbfb 	bl	10003e0c <tu_fifo_config>
10003616:	f504 7610 	add.w	r6, r4, #576	; 0x240
1000361a:	4638      	mov	r0, r7
1000361c:	f7fd fb7e 	bl	10000d1c <mutex_init>
10003620:	4630      	mov	r0, r6
10003622:	f7fd fb7b 	bl	10000d1c <mutex_init>
10003626:	e9c4 5707 	strd	r5, r7, [r4, #28]
1000362a:	e9c4 650c 	strd	r6, r5, [r4, #48]	; 0x30
1000362e:	b003      	add	sp, #12
10003630:	bdf0      	pop	{r4, r5, r6, r7, pc}
10003632:	bf00      	nop
10003634:	20000c64 	.word	0x20000c64
10003638:	20000c60 	.word	0x20000c60

1000363c <cdcd_deinit>:
1000363c:	4b06      	ldr	r3, [pc, #24]	; (10003658 <cdcd_deinit+0x1c>)
1000363e:	6a1a      	ldr	r2, [r3, #32]
10003640:	6b19      	ldr	r1, [r3, #48]	; 0x30
10003642:	b112      	cbz	r2, 1000364a <cdcd_deinit+0xe>
10003644:	2200      	movs	r2, #0
10003646:	e9c3 2207 	strd	r2, r2, [r3, #28]
1000364a:	b111      	cbz	r1, 10003652 <cdcd_deinit+0x16>
1000364c:	2200      	movs	r2, #0
1000364e:	e9c3 220c 	strd	r2, r2, [r3, #48]	; 0x30
10003652:	2001      	movs	r0, #1
10003654:	4770      	bx	lr
10003656:	bf00      	nop
10003658:	20000c64 	.word	0x20000c64

1000365c <cdcd_reset>:
1000365c:	2200      	movs	r2, #0
1000365e:	b510      	push	{r4, lr}
10003660:	4c0e      	ldr	r4, [pc, #56]	; (1000369c <cdcd_reset+0x40>)
10003662:	480f      	ldr	r0, [pc, #60]	; (100036a0 <cdcd_reset+0x44>)
10003664:	7823      	ldrb	r3, [r4, #0]
10003666:	6002      	str	r2, [r0, #0]
10003668:	7102      	strb	r2, [r0, #4]
1000366a:	07da      	lsls	r2, r3, #31
1000366c:	d507      	bpl.n	1000367e <cdcd_reset+0x22>
1000366e:	079b      	lsls	r3, r3, #30
10003670:	d50b      	bpl.n	1000368a <cdcd_reset+0x2e>
10003672:	e8bd 4010 	ldmia.w	sp!, {r4, lr}
10003676:	2101      	movs	r1, #1
10003678:	480a      	ldr	r0, [pc, #40]	; (100036a4 <cdcd_reset+0x48>)
1000367a:	f000 bd7f 	b.w	1000417c <tu_fifo_set_overwritable>
1000367e:	3010      	adds	r0, #16
10003680:	f000 fd60 	bl	10004144 <tu_fifo_clear>
10003684:	7823      	ldrb	r3, [r4, #0]
10003686:	079b      	lsls	r3, r3, #30
10003688:	d4f3      	bmi.n	10003672 <cdcd_reset+0x16>
1000368a:	4806      	ldr	r0, [pc, #24]	; (100036a4 <cdcd_reset+0x48>)
1000368c:	f000 fd5a 	bl	10004144 <tu_fifo_clear>
10003690:	e8bd 4010 	ldmia.w	sp!, {r4, lr}
10003694:	2101      	movs	r1, #1
10003696:	4803      	ldr	r0, [pc, #12]	; (100036a4 <cdcd_reset+0x48>)
10003698:	f000 bd70 	b.w	1000417c <tu_fifo_set_overwritable>
1000369c:	20000c60 	.word	0x20000c60
100036a0:	20000c64 	.word	0x20000c64
100036a4:	20000c88 	.word	0x20000c88

100036a8 <cdcd_open>:
100036a8:	b5f0      	push	{r4, r5, r6, r7, lr}
100036aa:	794b      	ldrb	r3, [r1, #5]
100036ac:	b083      	sub	sp, #12
100036ae:	2b02      	cmp	r3, #2
100036b0:	d102      	bne.n	100036b8 <cdcd_open+0x10>
100036b2:	798b      	ldrb	r3, [r1, #6]
100036b4:	2b02      	cmp	r3, #2
100036b6:	d003      	beq.n	100036c0 <cdcd_open+0x18>
100036b8:	2500      	movs	r5, #0
100036ba:	4628      	mov	r0, r5
100036bc:	b003      	add	sp, #12
100036be:	bdf0      	pop	{r4, r5, r6, r7, pc}
100036c0:	4f26      	ldr	r7, [pc, #152]	; (1000375c <cdcd_open+0xb4>)
100036c2:	78bb      	ldrb	r3, [r7, #2]
100036c4:	b13b      	cbz	r3, 100036d6 <cdcd_open+0x2e>
100036c6:	f04f 23e0 	mov.w	r3, #3758153728	; 0xe000e000
100036ca:	f8d3 3df0 	ldr.w	r3, [r3, #3568]	; 0xdf0
100036ce:	07db      	lsls	r3, r3, #31
100036d0:	d5f2      	bpl.n	100036b8 <cdcd_open+0x10>
100036d2:	be00      	bkpt	0x0000
100036d4:	e7f0      	b.n	100036b8 <cdcd_open+0x10>
100036d6:	788b      	ldrb	r3, [r1, #2]
100036d8:	4606      	mov	r6, r0
100036da:	703b      	strb	r3, [r7, #0]
100036dc:	780c      	ldrb	r4, [r1, #0]
100036de:	2509      	movs	r5, #9
100036e0:	440c      	add	r4, r1
100036e2:	7861      	ldrb	r1, [r4, #1]
100036e4:	2924      	cmp	r1, #36	; 0x24
100036e6:	d10b      	bne.n	10003700 <cdcd_open+0x58>
100036e8:	2a08      	cmp	r2, #8
100036ea:	d802      	bhi.n	100036f2 <cdcd_open+0x4a>
100036ec:	e010      	b.n	10003710 <cdcd_open+0x68>
100036ee:	42aa      	cmp	r2, r5
100036f0:	d30e      	bcc.n	10003710 <cdcd_open+0x68>
100036f2:	7823      	ldrb	r3, [r4, #0]
100036f4:	441c      	add	r4, r3
100036f6:	7861      	ldrb	r1, [r4, #1]
100036f8:	442b      	add	r3, r5
100036fa:	2924      	cmp	r1, #36	; 0x24
100036fc:	b29d      	uxth	r5, r3
100036fe:	d0f6      	beq.n	100036ee <cdcd_open+0x46>
10003700:	2905      	cmp	r1, #5
10003702:	d00b      	beq.n	1000371c <cdcd_open+0x74>
10003704:	7863      	ldrb	r3, [r4, #1]
10003706:	2b04      	cmp	r3, #4
10003708:	d102      	bne.n	10003710 <cdcd_open+0x68>
1000370a:	7963      	ldrb	r3, [r4, #5]
1000370c:	2b0a      	cmp	r3, #10
1000370e:	d012      	beq.n	10003736 <cdcd_open+0x8e>
10003710:	4812      	ldr	r0, [pc, #72]	; (1000375c <cdcd_open+0xb4>)
10003712:	f7ff fe73 	bl	100033fc <_prep_out_transaction.isra.0>
10003716:	4628      	mov	r0, r5
10003718:	b003      	add	sp, #12
1000371a:	bdf0      	pop	{r4, r5, r6, r7, pc}
1000371c:	4621      	mov	r1, r4
1000371e:	4630      	mov	r0, r6
10003720:	f7ff fc9c 	bl	1000305c <usbd_edpt_open>
10003724:	2800      	cmp	r0, #0
10003726:	d0ce      	beq.n	100036c6 <cdcd_open+0x1e>
10003728:	78a3      	ldrb	r3, [r4, #2]
1000372a:	707b      	strb	r3, [r7, #1]
1000372c:	7822      	ldrb	r2, [r4, #0]
1000372e:	18ab      	adds	r3, r5, r2
10003730:	b29d      	uxth	r5, r3
10003732:	4414      	add	r4, r2
10003734:	e7e6      	b.n	10003704 <cdcd_open+0x5c>
10003736:	4b0a      	ldr	r3, [pc, #40]	; (10003760 <cdcd_open+0xb8>)
10003738:	7827      	ldrb	r7, [r4, #0]
1000373a:	9301      	str	r3, [sp, #4]
1000373c:	3301      	adds	r3, #1
1000373e:	9300      	str	r3, [sp, #0]
10003740:	2302      	movs	r3, #2
10003742:	4630      	mov	r0, r6
10003744:	461a      	mov	r2, r3
10003746:	19e1      	adds	r1, r4, r7
10003748:	f7ff fcaa 	bl	100030a0 <usbd_open_edpt_pair>
1000374c:	2800      	cmp	r0, #0
1000374e:	d0ba      	beq.n	100036c6 <cdcd_open+0x1e>
10003750:	f105 030e 	add.w	r3, r5, #14
10003754:	fa17 f383 	uxtah	r3, r7, r3
10003758:	b29d      	uxth	r5, r3
1000375a:	e7d9      	b.n	10003710 <cdcd_open+0x68>
1000375c:	20000c64 	.word	0x20000c64
10003760:	20000c66 	.word	0x20000c66

10003764 <cdcd_control_xfer_cb>:
10003764:	7813      	ldrb	r3, [r2, #0]
10003766:	f003 0360 	and.w	r3, r3, #96	; 0x60
1000376a:	2b20      	cmp	r3, #32
1000376c:	d10e      	bne.n	1000378c <cdcd_control_xfer_cb+0x28>
1000376e:	b570      	push	{r4, r5, r6, lr}
10003770:	4c29      	ldr	r4, [pc, #164]	; (10003818 <cdcd_control_xfer_cb+0xb4>)
10003772:	8893      	ldrh	r3, [r2, #4]
10003774:	f894 c000 	ldrb.w	ip, [r4]
10003778:	459c      	cmp	ip, r3
1000377a:	d109      	bne.n	10003790 <cdcd_control_xfer_cb+0x2c>
1000377c:	7853      	ldrb	r3, [r2, #1]
1000377e:	3b20      	subs	r3, #32
10003780:	2b03      	cmp	r3, #3
10003782:	d805      	bhi.n	10003790 <cdcd_control_xfer_cb+0x2c>
10003784:	e8df f003 	tbb	[pc, r3]
10003788:	0622190c 	.word	0x0622190c
1000378c:	2000      	movs	r0, #0
1000378e:	4770      	bx	lr
10003790:	2000      	movs	r0, #0
10003792:	bd70      	pop	{r4, r5, r6, pc}
10003794:	2901      	cmp	r1, #1
10003796:	d030      	beq.n	100037fa <cdcd_control_xfer_cb+0x96>
10003798:	2903      	cmp	r1, #3
1000379a:	d033      	beq.n	10003804 <cdcd_control_xfer_cb+0xa0>
1000379c:	2001      	movs	r0, #1
1000379e:	bd70      	pop	{r4, r5, r6, pc}
100037a0:	2901      	cmp	r1, #1
100037a2:	d00c      	beq.n	100037be <cdcd_control_xfer_cb+0x5a>
100037a4:	2903      	cmp	r1, #3
100037a6:	d1f9      	bne.n	1000379c <cdcd_control_xfer_cb+0x38>
100037a8:	4b1c      	ldr	r3, [pc, #112]	; (1000381c <cdcd_control_xfer_cb+0xb8>)
100037aa:	2b00      	cmp	r3, #0
100037ac:	d0f6      	beq.n	1000379c <cdcd_control_xfer_cb+0x38>
100037ae:	2000      	movs	r0, #0
100037b0:	491b      	ldr	r1, [pc, #108]	; (10003820 <cdcd_control_xfer_cb+0xbc>)
100037b2:	f7fe fb99 	bl	10001ee8 <tud_cdc_line_coding_cb>
100037b6:	2001      	movs	r0, #1
100037b8:	bd70      	pop	{r4, r5, r6, pc}
100037ba:	2901      	cmp	r1, #1
100037bc:	d1ee      	bne.n	1000379c <cdcd_control_xfer_cb+0x38>
100037be:	4611      	mov	r1, r2
100037c0:	2307      	movs	r3, #7
100037c2:	4a17      	ldr	r2, [pc, #92]	; (10003820 <cdcd_control_xfer_cb+0xbc>)
100037c4:	f7ff fd58 	bl	10003278 <tud_control_xfer>
100037c8:	2001      	movs	r0, #1
100037ca:	bd70      	pop	{r4, r5, r6, pc}
100037cc:	2901      	cmp	r1, #1
100037ce:	d014      	beq.n	100037fa <cdcd_control_xfer_cb+0x96>
100037d0:	2903      	cmp	r1, #3
100037d2:	d1e3      	bne.n	1000379c <cdcd_control_xfer_cb+0x38>
100037d4:	8855      	ldrh	r5, [r2, #2]
100037d6:	4813      	ldr	r0, [pc, #76]	; (10003824 <cdcd_control_xfer_cb+0xc0>)
100037d8:	f005 0601 	and.w	r6, r5, #1
100037dc:	f086 0101 	eor.w	r1, r6, #1
100037e0:	7125      	strb	r5, [r4, #4]
100037e2:	f000 fccb 	bl	1000417c <tu_fifo_set_overwritable>
100037e6:	4b10      	ldr	r3, [pc, #64]	; (10003828 <cdcd_control_xfer_cb+0xc4>)
100037e8:	2b00      	cmp	r3, #0
100037ea:	d0d7      	beq.n	1000379c <cdcd_control_xfer_cb+0x38>
100037ec:	4631      	mov	r1, r6
100037ee:	2000      	movs	r0, #0
100037f0:	f3c5 0240 	ubfx	r2, r5, #1, #1
100037f4:	e000      	b.n	100037f8 <cdcd_control_xfer_cb+0x94>
100037f6:	bf00      	nop
100037f8:	e7d0      	b.n	1000379c <cdcd_control_xfer_cb+0x38>
100037fa:	4611      	mov	r1, r2
100037fc:	f7ff fd22 	bl	10003244 <tud_control_status>
10003800:	2001      	movs	r0, #1
10003802:	bd70      	pop	{r4, r5, r6, pc}
10003804:	4b09      	ldr	r3, [pc, #36]	; (1000382c <cdcd_control_xfer_cb+0xc8>)
10003806:	2b00      	cmp	r3, #0
10003808:	d0c8      	beq.n	1000379c <cdcd_control_xfer_cb+0x38>
1000380a:	2000      	movs	r0, #0
1000380c:	8851      	ldrh	r1, [r2, #2]
1000380e:	e000      	b.n	10003812 <cdcd_control_xfer_cb+0xae>
10003810:	bf00      	nop
10003812:	2001      	movs	r0, #1
10003814:	bd70      	pop	{r4, r5, r6, pc}
10003816:	bf00      	nop
10003818:	20000c64 	.word	0x20000c64
1000381c:	10001ee9 	.word	0x10001ee9
10003820:	20000c6c 	.word	0x20000c6c
10003824:	20000c88 	.word	0x20000c88
	...

10003830 <cdcd_xfer_cb>:
10003830:	e92d 47f0 	stmdb	sp!, {r4, r5, r6, r7, r8, r9, sl, lr}
10003834:	4d37      	ldr	r5, [pc, #220]	; (10003914 <cdcd_xfer_cb+0xe4>)
10003836:	460c      	mov	r4, r1
10003838:	78ea      	ldrb	r2, [r5, #3]
1000383a:	4607      	mov	r7, r0
1000383c:	428a      	cmp	r2, r1
1000383e:	461e      	mov	r6, r3
10003840:	d156      	bne.n	100038f0 <cdcd_xfer_cb+0xc0>
10003842:	b29a      	uxth	r2, r3
10003844:	f505 7112 	add.w	r1, r5, #584	; 0x248
10003848:	f105 0010 	add.w	r0, r5, #16
1000384c:	f000 fbd4 	bl	10003ff8 <tu_fifo_write_n>
10003850:	4b31      	ldr	r3, [pc, #196]	; (10003918 <cdcd_xfer_cb+0xe8>)
10003852:	b1d3      	cbz	r3, 1000388a <cdcd_xfer_cb+0x5a>
10003854:	796b      	ldrb	r3, [r5, #5]
10003856:	2bff      	cmp	r3, #255	; 0xff
10003858:	d017      	beq.n	1000388a <cdcd_xfer_cb+0x5a>
1000385a:	b1b6      	cbz	r6, 1000388a <cdcd_xfer_cb+0x5a>
1000385c:	f205 2847 	addw	r8, r5, #583	; 0x247
10003860:	eb08 0a06 	add.w	sl, r8, r6
10003864:	f2a8 2937 	subw	r9, r8, #567	; 0x237
10003868:	e002      	b.n	10003870 <cdcd_xfer_cb+0x40>
1000386a:	45d0      	cmp	r8, sl
1000386c:	d00d      	beq.n	1000388a <cdcd_xfer_cb+0x5a>
1000386e:	796b      	ldrb	r3, [r5, #5]
10003870:	f818 2f01 	ldrb.w	r2, [r8, #1]!
10003874:	429a      	cmp	r2, r3
10003876:	d1f8      	bne.n	1000386a <cdcd_xfer_cb+0x3a>
10003878:	4648      	mov	r0, r9
1000387a:	f000 fb09 	bl	10003e90 <tu_fifo_empty>
1000387e:	2800      	cmp	r0, #0
10003880:	d1f3      	bne.n	1000386a <cdcd_xfer_cb+0x3a>
10003882:	7969      	ldrb	r1, [r5, #5]
10003884:	e000      	b.n	10003888 <cdcd_xfer_cb+0x58>
10003886:	bf00      	nop
10003888:	e7ef      	b.n	1000386a <cdcd_xfer_cb+0x3a>
1000388a:	4b24      	ldr	r3, [pc, #144]	; (1000391c <cdcd_xfer_cb+0xec>)
1000388c:	b123      	cbz	r3, 10003898 <cdcd_xfer_cb+0x68>
1000388e:	4824      	ldr	r0, [pc, #144]	; (10003920 <cdcd_xfer_cb+0xf0>)
10003890:	f000 fafe 	bl	10003e90 <tu_fifo_empty>
10003894:	2800      	cmp	r0, #0
10003896:	d03a      	beq.n	1000390e <cdcd_xfer_cb+0xde>
10003898:	481e      	ldr	r0, [pc, #120]	; (10003914 <cdcd_xfer_cb+0xe4>)
1000389a:	f7ff fdaf 	bl	100033fc <_prep_out_transaction.isra.0>
1000389e:	78ab      	ldrb	r3, [r5, #2]
100038a0:	42a3      	cmp	r3, r4
100038a2:	d003      	beq.n	100038ac <cdcd_xfer_cb+0x7c>
100038a4:	2401      	movs	r4, #1
100038a6:	4620      	mov	r0, r4
100038a8:	e8bd 87f0 	ldmia.w	sp!, {r4, r5, r6, r7, r8, r9, sl, pc}
100038ac:	4b1d      	ldr	r3, [pc, #116]	; (10003924 <cdcd_xfer_cb+0xf4>)
100038ae:	b113      	cbz	r3, 100038b6 <cdcd_xfer_cb+0x86>
100038b0:	2000      	movs	r0, #0
100038b2:	e000      	b.n	100038b6 <cdcd_xfer_cb+0x86>
100038b4:	bf00      	nop
100038b6:	2000      	movs	r0, #0
100038b8:	f7ff fe10 	bl	100034dc <tud_cdc_n_write_flush>
100038bc:	2800      	cmp	r0, #0
100038be:	d1f1      	bne.n	100038a4 <cdcd_xfer_cb+0x74>
100038c0:	4819      	ldr	r0, [pc, #100]	; (10003928 <cdcd_xfer_cb+0xf8>)
100038c2:	f000 fad5 	bl	10003e70 <tu_fifo_count>
100038c6:	2800      	cmp	r0, #0
100038c8:	d1ec      	bne.n	100038a4 <cdcd_xfer_cb+0x74>
100038ca:	2e00      	cmp	r6, #0
100038cc:	d0ea      	beq.n	100038a4 <cdcd_xfer_cb+0x74>
100038ce:	f016 063f 	ands.w	r6, r6, #63	; 0x3f
100038d2:	d1e7      	bne.n	100038a4 <cdcd_xfer_cb+0x74>
100038d4:	4638      	mov	r0, r7
100038d6:	78a9      	ldrb	r1, [r5, #2]
100038d8:	f7ff fc1e 	bl	10003118 <usbd_edpt_claim>
100038dc:	4604      	mov	r4, r0
100038de:	2800      	cmp	r0, #0
100038e0:	d0e0      	beq.n	100038a4 <cdcd_xfer_cb+0x74>
100038e2:	4633      	mov	r3, r6
100038e4:	4632      	mov	r2, r6
100038e6:	4638      	mov	r0, r7
100038e8:	78a9      	ldrb	r1, [r5, #2]
100038ea:	f7ff fc39 	bl	10003160 <usbd_edpt_xfer>
100038ee:	e7da      	b.n	100038a6 <cdcd_xfer_cb+0x76>
100038f0:	78ab      	ldrb	r3, [r5, #2]
100038f2:	428b      	cmp	r3, r1
100038f4:	d0da      	beq.n	100038ac <cdcd_xfer_cb+0x7c>
100038f6:	f04f 23e0 	mov.w	r3, #3758153728	; 0xe000e000
100038fa:	f8d3 4df0 	ldr.w	r4, [r3, #3568]	; 0xdf0
100038fe:	f014 0401 	ands.w	r4, r4, #1
10003902:	d0d0      	beq.n	100038a6 <cdcd_xfer_cb+0x76>
10003904:	be00      	bkpt	0x0000
10003906:	2400      	movs	r4, #0
10003908:	4620      	mov	r0, r4
1000390a:	e8bd 87f0 	ldmia.w	sp!, {r4, r5, r6, r7, r8, r9, sl, pc}
1000390e:	e000      	b.n	10003912 <cdcd_xfer_cb+0xe2>
10003910:	bf00      	nop
10003912:	e7c1      	b.n	10003898 <cdcd_xfer_cb+0x68>
10003914:	20000c64 	.word	0x20000c64
	...
10003920:	20000c74 	.word	0x20000c74
10003924:	00000000 	.word	0x00000000
10003928:	20000c88 	.word	0x20000c88

1000392c <_prep_out_transaction>:
1000392c:	b510      	push	{r4, lr}
1000392e:	4604      	mov	r4, r0
10003930:	2000      	movs	r0, #0
10003932:	78a1      	ldrb	r1, [r4, #2]
10003934:	f7ff fbf0 	bl	10003118 <usbd_edpt_claim>
10003938:	b900      	cbnz	r0, 1000393c <_prep_out_transaction+0x10>
1000393a:	bd10      	pop	{r4, pc}
1000393c:	1d20      	adds	r0, r4, #4
1000393e:	f000 fab1 	bl	10003ea4 <tu_fifo_remaining>
10003942:	283f      	cmp	r0, #63	; 0x3f
10003944:	d908      	bls.n	10003958 <_prep_out_transaction+0x2c>
10003946:	78a1      	ldrb	r1, [r4, #2]
10003948:	f504 720f 	add.w	r2, r4, #572	; 0x23c
1000394c:	2340      	movs	r3, #64	; 0x40
1000394e:	e8bd 4010 	ldmia.w	sp!, {r4, lr}
10003952:	2000      	movs	r0, #0
10003954:	f7ff bc04 	b.w	10003160 <usbd_edpt_xfer>
10003958:	78a1      	ldrb	r1, [r4, #2]
1000395a:	2000      	movs	r0, #0
1000395c:	e8bd 4010 	ldmia.w	sp!, {r4, lr}
10003960:	f7ff bbec 	b.w	1000313c <usbd_edpt_release>

10003964 <tud_vendor_n_write_flush>:
10003964:	e92d 41f0 	stmdb	sp!, {r4, r5, r6, r7, r8, lr}
10003968:	4604      	mov	r4, r0
1000396a:	f7fe ff21 	bl	100027b0 <tud_mounted>
1000396e:	b910      	cbnz	r0, 10003976 <tud_vendor_n_write_flush+0x12>
10003970:	2000      	movs	r0, #0
10003972:	e8bd 81f0 	ldmia.w	sp!, {r4, r5, r6, r7, r8, pc}
10003976:	f7fe ff23 	bl	100027c0 <tud_suspended>
1000397a:	4606      	mov	r6, r0
1000397c:	2800      	cmp	r0, #0
1000397e:	d1f7      	bne.n	10003970 <tud_vendor_n_write_flush+0xc>
10003980:	f44f 702f 	mov.w	r0, #700	; 0x2bc
10003984:	fb00 f404 	mul.w	r4, r0, r4
10003988:	f8df 805c 	ldr.w	r8, [pc, #92]	; 100039e8 <tud_vendor_n_write_flush+0x84>
1000398c:	f104 0518 	add.w	r5, r4, #24
10003990:	4445      	add	r5, r8
10003992:	4628      	mov	r0, r5
10003994:	f000 fa6c 	bl	10003e70 <tu_fifo_count>
10003998:	2800      	cmp	r0, #0
1000399a:	d0e9      	beq.n	10003970 <tud_vendor_n_write_flush+0xc>
1000399c:	eb08 0704 	add.w	r7, r8, r4
100039a0:	4630      	mov	r0, r6
100039a2:	7879      	ldrb	r1, [r7, #1]
100039a4:	f7ff fbb8 	bl	10003118 <usbd_edpt_claim>
100039a8:	2800      	cmp	r0, #0
100039aa:	d0e1      	beq.n	10003970 <tud_vendor_n_write_flush+0xc>
100039ac:	f504 741f 	add.w	r4, r4, #636	; 0x27c
100039b0:	4444      	add	r4, r8
100039b2:	4628      	mov	r0, r5
100039b4:	2240      	movs	r2, #64	; 0x40
100039b6:	4621      	mov	r1, r4
100039b8:	f000 faae 	bl	10003f18 <tu_fifo_read_n>
100039bc:	4605      	mov	r5, r0
100039be:	b170      	cbz	r0, 100039de <tud_vendor_n_write_flush+0x7a>
100039c0:	4603      	mov	r3, r0
100039c2:	4622      	mov	r2, r4
100039c4:	4630      	mov	r0, r6
100039c6:	7879      	ldrb	r1, [r7, #1]
100039c8:	f7ff fbca 	bl	10003160 <usbd_edpt_xfer>
100039cc:	b950      	cbnz	r0, 100039e4 <tud_vendor_n_write_flush+0x80>
100039ce:	f04f 23e0 	mov.w	r3, #3758153728	; 0xe000e000
100039d2:	f8d3 3df0 	ldr.w	r3, [r3, #3568]	; 0xdf0
100039d6:	07db      	lsls	r3, r3, #31
100039d8:	d5ca      	bpl.n	10003970 <tud_vendor_n_write_flush+0xc>
100039da:	be00      	bkpt	0x0000
100039dc:	e7c9      	b.n	10003972 <tud_vendor_n_write_flush+0xe>
100039de:	7879      	ldrb	r1, [r7, #1]
100039e0:	f7ff fbac 	bl	1000313c <usbd_edpt_release>
100039e4:	4628      	mov	r0, r5
100039e6:	e7c4      	b.n	10003972 <tud_vendor_n_write_flush+0xe>
100039e8:	200010d0 	.word	0x200010d0

100039ec <vendord_init>:
100039ec:	b5f0      	push	{r4, r5, r6, r7, lr}
100039ee:	2500      	movs	r5, #0
100039f0:	4c15      	ldr	r4, [pc, #84]	; (10003a48 <vendord_init+0x5c>)
100039f2:	b083      	sub	sp, #12
100039f4:	4629      	mov	r1, r5
100039f6:	f44f 722f 	mov.w	r2, #700	; 0x2bc
100039fa:	4620      	mov	r0, r4
100039fc:	f000 fc52 	bl	100042a4 <memset>
10003a00:	f104 012c 	add.w	r1, r4, #44	; 0x2c
10003a04:	2301      	movs	r3, #1
10003a06:	f44f 7280 	mov.w	r2, #256	; 0x100
10003a0a:	1d20      	adds	r0, r4, #4
10003a0c:	9500      	str	r5, [sp, #0]
10003a0e:	f000 f9fd 	bl	10003e0c <tu_fifo_config>
10003a12:	f504 770b 	add.w	r7, r4, #556	; 0x22c
10003a16:	2301      	movs	r3, #1
10003a18:	f44f 7280 	mov.w	r2, #256	; 0x100
10003a1c:	f504 7196 	add.w	r1, r4, #300	; 0x12c
10003a20:	9500      	str	r5, [sp, #0]
10003a22:	f104 0018 	add.w	r0, r4, #24
10003a26:	f000 f9f1 	bl	10003e0c <tu_fifo_config>
10003a2a:	f504 760d 	add.w	r6, r4, #564	; 0x234
10003a2e:	4638      	mov	r0, r7
10003a30:	f7fd f974 	bl	10000d1c <mutex_init>
10003a34:	4630      	mov	r0, r6
10003a36:	f7fd f971 	bl	10000d1c <mutex_init>
10003a3a:	e9c4 5704 	strd	r5, r7, [r4, #16]
10003a3e:	e9c4 6509 	strd	r6, r5, [r4, #36]	; 0x24
10003a42:	b003      	add	sp, #12
10003a44:	bdf0      	pop	{r4, r5, r6, r7, pc}
10003a46:	bf00      	nop
10003a48:	200010d0 	.word	0x200010d0

10003a4c <vendord_deinit>:
10003a4c:	4b06      	ldr	r3, [pc, #24]	; (10003a68 <vendord_deinit+0x1c>)
10003a4e:	695a      	ldr	r2, [r3, #20]
10003a50:	6a59      	ldr	r1, [r3, #36]	; 0x24
10003a52:	b112      	cbz	r2, 10003a5a <vendord_deinit+0xe>
10003a54:	2200      	movs	r2, #0
10003a56:	e9c3 2204 	strd	r2, r2, [r3, #16]
10003a5a:	b111      	cbz	r1, 10003a62 <vendord_deinit+0x16>
10003a5c:	2200      	movs	r2, #0
10003a5e:	e9c3 2209 	strd	r2, r2, [r3, #36]	; 0x24
10003a62:	2001      	movs	r0, #1
10003a64:	4770      	bx	lr
10003a66:	bf00      	nop
10003a68:	200010d0 	.word	0x200010d0

10003a6c <vendord_reset>:
10003a6c:	b510      	push	{r4, lr}
10003a6e:	4c06      	ldr	r4, [pc, #24]	; (10003a88 <vendord_reset+0x1c>)
10003a70:	2300      	movs	r3, #0
10003a72:	4620      	mov	r0, r4
10003a74:	f840 3b04 	str.w	r3, [r0], #4
10003a78:	f000 fb64 	bl	10004144 <tu_fifo_clear>
10003a7c:	f104 0018 	add.w	r0, r4, #24
10003a80:	e8bd 4010 	ldmia.w	sp!, {r4, lr}
10003a84:	f000 bb5e 	b.w	10004144 <tu_fifo_clear>
10003a88:	200010d0 	.word	0x200010d0

10003a8c <vendord_open>:
10003a8c:	794b      	ldrb	r3, [r1, #5]
10003a8e:	2bff      	cmp	r3, #255	; 0xff
10003a90:	d001      	beq.n	10003a96 <vendord_open+0xa>
10003a92:	2000      	movs	r0, #0
10003a94:	4770      	bx	lr
10003a96:	b5f0      	push	{r4, r5, r6, r7, lr}
10003a98:	4c21      	ldr	r4, [pc, #132]	; (10003b20 <vendord_open+0x94>)
10003a9a:	b083      	sub	sp, #12
10003a9c:	7865      	ldrb	r5, [r4, #1]
10003a9e:	78a3      	ldrb	r3, [r4, #2]
10003aa0:	432b      	orrs	r3, r5
10003aa2:	d002      	beq.n	10003aaa <vendord_open+0x1e>
10003aa4:	2000      	movs	r0, #0
10003aa6:	b003      	add	sp, #12
10003aa8:	bdf0      	pop	{r4, r5, r6, r7, pc}
10003aaa:	780d      	ldrb	r5, [r1, #0]
10003aac:	788b      	ldrb	r3, [r1, #2]
10003aae:	790f      	ldrb	r7, [r1, #4]
10003ab0:	460e      	mov	r6, r1
10003ab2:	440d      	add	r5, r1
10003ab4:	7023      	strb	r3, [r4, #0]
10003ab6:	b1ff      	cbz	r7, 10003af8 <vendord_open+0x6c>
10003ab8:	786b      	ldrb	r3, [r5, #1]
10003aba:	2b05      	cmp	r3, #5
10003abc:	d00a      	beq.n	10003ad4 <vendord_open+0x48>
10003abe:	18ab      	adds	r3, r5, r2
10003ac0:	429d      	cmp	r5, r3
10003ac2:	d302      	bcc.n	10003aca <vendord_open+0x3e>
10003ac4:	e006      	b.n	10003ad4 <vendord_open+0x48>
10003ac6:	42ab      	cmp	r3, r5
10003ac8:	d904      	bls.n	10003ad4 <vendord_open+0x48>
10003aca:	7829      	ldrb	r1, [r5, #0]
10003acc:	440d      	add	r5, r1
10003ace:	7869      	ldrb	r1, [r5, #1]
10003ad0:	2905      	cmp	r1, #5
10003ad2:	d1f8      	bne.n	10003ac6 <vendord_open+0x3a>
10003ad4:	463a      	mov	r2, r7
10003ad6:	4f13      	ldr	r7, [pc, #76]	; (10003b24 <vendord_open+0x98>)
10003ad8:	4629      	mov	r1, r5
10003ada:	1c7b      	adds	r3, r7, #1
10003adc:	9300      	str	r3, [sp, #0]
10003ade:	9701      	str	r7, [sp, #4]
10003ae0:	2302      	movs	r3, #2
10003ae2:	f7ff fadd 	bl	100030a0 <usbd_open_edpt_pair>
10003ae6:	b158      	cbz	r0, 10003b00 <vendord_open+0x74>
10003ae8:	7933      	ldrb	r3, [r6, #4]
10003aea:	ebc3 03c3 	rsb	r3, r3, r3, lsl #3
10003aee:	441d      	add	r5, r3
10003af0:	78a3      	ldrb	r3, [r4, #2]
10003af2:	b98b      	cbnz	r3, 10003b18 <vendord_open+0x8c>
10003af4:	7863      	ldrb	r3, [r4, #1]
10003af6:	b95b      	cbnz	r3, 10003b10 <vendord_open+0x84>
10003af8:	1ba8      	subs	r0, r5, r6
10003afa:	b280      	uxth	r0, r0
10003afc:	b003      	add	sp, #12
10003afe:	bdf0      	pop	{r4, r5, r6, r7, pc}
10003b00:	f04f 22e0 	mov.w	r2, #3758153728	; 0xe000e000
10003b04:	f8d2 2df0 	ldr.w	r2, [r2, #3568]	; 0xdf0
10003b08:	07d2      	lsls	r2, r2, #31
10003b0a:	d5cb      	bpl.n	10003aa4 <vendord_open+0x18>
10003b0c:	be00      	bkpt	0x0000
10003b0e:	e7ca      	b.n	10003aa6 <vendord_open+0x1a>
10003b10:	2000      	movs	r0, #0
10003b12:	f7ff ff27 	bl	10003964 <tud_vendor_n_write_flush>
10003b16:	e7ef      	b.n	10003af8 <vendord_open+0x6c>
10003b18:	1e78      	subs	r0, r7, #1
10003b1a:	f7ff ff07 	bl	1000392c <_prep_out_transaction>
10003b1e:	e7e9      	b.n	10003af4 <vendord_open+0x68>
10003b20:	200010d0 	.word	0x200010d0
10003b24:	200010d1 	.word	0x200010d1

10003b28 <vendord_xfer_cb>:
10003b28:	b5f8      	push	{r3, r4, r5, r6, r7, lr}
10003b2a:	4d20      	ldr	r5, [pc, #128]	; (10003bac <vendord_xfer_cb+0x84>)
10003b2c:	461c      	mov	r4, r3
10003b2e:	78aa      	ldrb	r2, [r5, #2]
10003b30:	428a      	cmp	r2, r1
10003b32:	d013      	beq.n	10003b5c <vendord_xfer_cb+0x34>
10003b34:	786b      	ldrb	r3, [r5, #1]
10003b36:	428b      	cmp	r3, r1
10003b38:	d10d      	bne.n	10003b56 <vendord_xfer_cb+0x2e>
10003b3a:	4b1d      	ldr	r3, [pc, #116]	; (10003bb0 <vendord_xfer_cb+0x88>)
10003b3c:	4606      	mov	r6, r0
10003b3e:	b11b      	cbz	r3, 10003b48 <vendord_xfer_cb+0x20>
10003b40:	2000      	movs	r0, #0
10003b42:	b2a1      	uxth	r1, r4
10003b44:	e000      	b.n	10003b48 <vendord_xfer_cb+0x20>
10003b46:	bf00      	nop
10003b48:	2000      	movs	r0, #0
10003b4a:	f7ff ff0b 	bl	10003964 <tud_vendor_n_write_flush>
10003b4e:	b1a8      	cbz	r0, 10003b7c <vendord_xfer_cb+0x54>
10003b50:	2701      	movs	r7, #1
10003b52:	4638      	mov	r0, r7
10003b54:	bdf8      	pop	{r3, r4, r5, r6, r7, pc}
10003b56:	2700      	movs	r7, #0
10003b58:	4638      	mov	r0, r7
10003b5a:	bdf8      	pop	{r3, r4, r5, r6, r7, pc}
10003b5c:	b29a      	uxth	r2, r3
10003b5e:	f505 710f 	add.w	r1, r5, #572	; 0x23c
10003b62:	1d28      	adds	r0, r5, #4
10003b64:	f000 fa48 	bl	10003ff8 <tu_fifo_write_n>
10003b68:	4b12      	ldr	r3, [pc, #72]	; (10003bb4 <vendord_xfer_cb+0x8c>)
10003b6a:	b113      	cbz	r3, 10003b72 <vendord_xfer_cb+0x4a>
10003b6c:	2000      	movs	r0, #0
10003b6e:	e000      	b.n	10003b72 <vendord_xfer_cb+0x4a>
10003b70:	bf00      	nop
10003b72:	480e      	ldr	r0, [pc, #56]	; (10003bac <vendord_xfer_cb+0x84>)
10003b74:	f7ff feda 	bl	1000392c <_prep_out_transaction>
10003b78:	2701      	movs	r7, #1
10003b7a:	e7ed      	b.n	10003b58 <vendord_xfer_cb+0x30>
10003b7c:	480e      	ldr	r0, [pc, #56]	; (10003bb8 <vendord_xfer_cb+0x90>)
10003b7e:	f000 f977 	bl	10003e70 <tu_fifo_count>
10003b82:	2800      	cmp	r0, #0
10003b84:	d1e4      	bne.n	10003b50 <vendord_xfer_cb+0x28>
10003b86:	2c00      	cmp	r4, #0
10003b88:	d0e2      	beq.n	10003b50 <vendord_xfer_cb+0x28>
10003b8a:	f014 043f 	ands.w	r4, r4, #63	; 0x3f
10003b8e:	d1df      	bne.n	10003b50 <vendord_xfer_cb+0x28>
10003b90:	4630      	mov	r0, r6
10003b92:	7869      	ldrb	r1, [r5, #1]
10003b94:	f7ff fac0 	bl	10003118 <usbd_edpt_claim>
10003b98:	4607      	mov	r7, r0
10003b9a:	2800      	cmp	r0, #0
10003b9c:	d0d8      	beq.n	10003b50 <vendord_xfer_cb+0x28>
10003b9e:	4623      	mov	r3, r4
10003ba0:	4622      	mov	r2, r4
10003ba2:	4630      	mov	r0, r6
10003ba4:	7869      	ldrb	r1, [r5, #1]
10003ba6:	f7ff fadb 	bl	10003160 <usbd_edpt_xfer>
10003baa:	e7d5      	b.n	10003b58 <vendord_xfer_cb+0x30>
10003bac:	200010d0 	.word	0x200010d0
	...
10003bb8:	200010e8 	.word	0x200010e8

10003bbc <tusb_init>:
10003bbc:	b508      	push	{r3, lr}
10003bbe:	2000      	movs	r0, #0
10003bc0:	f7fe fe06 	bl	100027d0 <tud_init>
10003bc4:	b100      	cbz	r0, 10003bc8 <tusb_init+0xc>
10003bc6:	bd08      	pop	{r3, pc}
10003bc8:	f04f 23e0 	mov.w	r3, #3758153728	; 0xe000e000
10003bcc:	f8d3 3df0 	ldr.w	r3, [r3, #3568]	; 0xdf0
10003bd0:	07db      	lsls	r3, r3, #31
10003bd2:	d5f8      	bpl.n	10003bc6 <tusb_init+0xa>
10003bd4:	be00      	bkpt	0x0000
10003bd6:	bd08      	pop	{r3, pc}

10003bd8 <tu_edpt_claim>:
10003bd8:	b5f8      	push	{r3, r4, r5, r6, r7, lr}
10003bda:	7803      	ldrb	r3, [r0, #0]
10003bdc:	f013 0401 	ands.w	r4, r3, #1
10003be0:	d11a      	bne.n	10003c18 <tu_edpt_claim+0x40>
10003be2:	7803      	ldrb	r3, [r0, #0]
10003be4:	4605      	mov	r5, r0
10003be6:	075a      	lsls	r2, r3, #29
10003be8:	f3c3 0780 	ubfx	r7, r3, #2, #1
10003bec:	d501      	bpl.n	10003bf2 <tu_edpt_claim+0x1a>
10003bee:	4620      	mov	r0, r4
10003bf0:	bdf8      	pop	{r3, r4, r5, r6, r7, pc}
10003bf2:	460e      	mov	r6, r1
10003bf4:	f04f 31ff 	mov.w	r1, #4294967295	; 0xffffffff
10003bf8:	4630      	mov	r0, r6
10003bfa:	f000 fbfd 	bl	100043f8 <__mutex_enter_timeout_ms_veneer>
10003bfe:	782b      	ldrb	r3, [r5, #0]
10003c00:	f013 0401 	ands.w	r4, r3, #1
10003c04:	d10b      	bne.n	10003c1e <tu_edpt_claim+0x46>
10003c06:	782b      	ldrb	r3, [r5, #0]
10003c08:	075b      	lsls	r3, r3, #29
10003c0a:	d409      	bmi.n	10003c20 <tu_edpt_claim+0x48>
10003c0c:	782b      	ldrb	r3, [r5, #0]
10003c0e:	2401      	movs	r4, #1
10003c10:	f043 0304 	orr.w	r3, r3, #4
10003c14:	702b      	strb	r3, [r5, #0]
10003c16:	e003      	b.n	10003c20 <tu_edpt_claim+0x48>
10003c18:	2400      	movs	r4, #0
10003c1a:	4620      	mov	r0, r4
10003c1c:	bdf8      	pop	{r3, r4, r5, r6, r7, pc}
10003c1e:	463c      	mov	r4, r7
10003c20:	4630      	mov	r0, r6
10003c22:	f000 fbc9 	bl	100043b8 <__mutex_exit_veneer>
10003c26:	4620      	mov	r0, r4
10003c28:	bdf8      	pop	{r3, r4, r5, r6, r7, pc}
10003c2a:	bf00      	nop

10003c2c <tu_edpt_release>:
10003c2c:	b570      	push	{r4, r5, r6, lr}
10003c2e:	460d      	mov	r5, r1
10003c30:	4604      	mov	r4, r0
10003c32:	f04f 31ff 	mov.w	r1, #4294967295	; 0xffffffff
10003c36:	4628      	mov	r0, r5
10003c38:	f000 fbde 	bl	100043f8 <__mutex_enter_timeout_ms_veneer>
10003c3c:	7823      	ldrb	r3, [r4, #0]
10003c3e:	f3c3 0680 	ubfx	r6, r3, #2, #1
10003c42:	075b      	lsls	r3, r3, #29
10003c44:	d508      	bpl.n	10003c58 <tu_edpt_release+0x2c>
10003c46:	7823      	ldrb	r3, [r4, #0]
10003c48:	f013 0201 	ands.w	r2, r3, #1
10003c4c:	bf11      	iteee	ne
10003c4e:	2600      	movne	r6, #0
10003c50:	7823      	ldrbeq	r3, [r4, #0]
10003c52:	f362 0382 	bfieq	r3, r2, #2, #1
10003c56:	7023      	strbeq	r3, [r4, #0]
10003c58:	4628      	mov	r0, r5
10003c5a:	f000 fbad 	bl	100043b8 <__mutex_exit_veneer>
10003c5e:	4630      	mov	r0, r6
10003c60:	bd70      	pop	{r4, r5, r6, pc}
10003c62:	bf00      	nop

10003c64 <tu_edpt_validate>:
10003c64:	78c3      	ldrb	r3, [r0, #3]
10003c66:	8882      	ldrh	r2, [r0, #4]
10003c68:	f003 0003 	and.w	r0, r3, #3
10003c6c:	2802      	cmp	r0, #2
10003c6e:	f3c2 020a 	ubfx	r2, r2, #0, #11
10003c72:	d005      	beq.n	10003c80 <tu_edpt_validate+0x1c>
10003c74:	2803      	cmp	r0, #3
10003c76:	d01b      	beq.n	10003cb0 <tu_edpt_validate+0x4c>
10003c78:	2801      	cmp	r0, #1
10003c7a:	d007      	beq.n	10003c8c <tu_edpt_validate+0x28>
10003c7c:	2000      	movs	r0, #0
10003c7e:	4770      	bx	lr
10003c80:	2902      	cmp	r1, #2
10003c82:	d01e      	beq.n	10003cc2 <tu_edpt_validate+0x5e>
10003c84:	2a40      	cmp	r2, #64	; 0x40
10003c86:	d809      	bhi.n	10003c9c <tu_edpt_validate+0x38>
10003c88:	2001      	movs	r0, #1
10003c8a:	4770      	bx	lr
10003c8c:	2902      	cmp	r1, #2
10003c8e:	f240 33ff 	movw	r3, #1023	; 0x3ff
10003c92:	bf08      	it	eq
10003c94:	f44f 6380 	moveq.w	r3, #1024	; 0x400
10003c98:	4293      	cmp	r3, r2
10003c9a:	d2f6      	bcs.n	10003c8a <tu_edpt_validate+0x26>
10003c9c:	f04f 23e0 	mov.w	r3, #3758153728	; 0xe000e000
10003ca0:	f8d3 0df0 	ldr.w	r0, [r3, #3568]	; 0xdf0
10003ca4:	f010 0001 	ands.w	r0, r0, #1
10003ca8:	d0ef      	beq.n	10003c8a <tu_edpt_validate+0x26>
10003caa:	be00      	bkpt	0x0000
10003cac:	2000      	movs	r0, #0
10003cae:	4770      	bx	lr
10003cb0:	2902      	cmp	r1, #2
10003cb2:	bf0c      	ite	eq
10003cb4:	f44f 6380 	moveq.w	r3, #1024	; 0x400
10003cb8:	2340      	movne	r3, #64	; 0x40
10003cba:	4293      	cmp	r3, r2
10003cbc:	d3ee      	bcc.n	10003c9c <tu_edpt_validate+0x38>
10003cbe:	2001      	movs	r0, #1
10003cc0:	e7e3      	b.n	10003c8a <tu_edpt_validate+0x26>
10003cc2:	f5b2 7f00 	cmp.w	r2, #512	; 0x200
10003cc6:	d0df      	beq.n	10003c88 <tu_edpt_validate+0x24>
10003cc8:	e7e8      	b.n	10003c9c <tu_edpt_validate+0x38>
10003cca:	bf00      	nop

10003ccc <tu_edpt_bind_driver>:
10003ccc:	440a      	add	r2, r1
10003cce:	4291      	cmp	r1, r2
10003cd0:	d305      	bcc.n	10003cde <tu_edpt_bind_driver+0x12>
10003cd2:	e025      	b.n	10003d20 <tu_edpt_bind_driver+0x54>
10003cd4:	f891 c000 	ldrb.w	ip, [r1]
10003cd8:	4461      	add	r1, ip
10003cda:	428a      	cmp	r2, r1
10003cdc:	d921      	bls.n	10003d22 <tu_edpt_bind_driver+0x56>
10003cde:	f891 c001 	ldrb.w	ip, [r1, #1]
10003ce2:	f1bc 0f05 	cmp.w	ip, #5
10003ce6:	d1f5      	bne.n	10003cd4 <tu_edpt_bind_driver+0x8>
10003ce8:	b500      	push	{lr}
10003cea:	f891 c002 	ldrb.w	ip, [r1, #2]
10003cee:	f00c 0e7f 	and.w	lr, ip, #127	; 0x7f
10003cf2:	eb00 0e4e 	add.w	lr, r0, lr, lsl #1
10003cf6:	ea4f 1cdc 	mov.w	ip, ip, lsr #7
10003cfa:	f80e 300c 	strb.w	r3, [lr, ip]
10003cfe:	f891 c000 	ldrb.w	ip, [r1]
10003d02:	4461      	add	r1, ip
10003d04:	428a      	cmp	r2, r1
10003d06:	d909      	bls.n	10003d1c <tu_edpt_bind_driver+0x50>
10003d08:	f891 c001 	ldrb.w	ip, [r1, #1]
10003d0c:	f1bc 0f05 	cmp.w	ip, #5
10003d10:	d0eb      	beq.n	10003cea <tu_edpt_bind_driver+0x1e>
10003d12:	f891 c000 	ldrb.w	ip, [r1]
10003d16:	4461      	add	r1, ip
10003d18:	428a      	cmp	r2, r1
10003d1a:	d8f5      	bhi.n	10003d08 <tu_edpt_bind_driver+0x3c>
10003d1c:	f85d fb04 	ldr.w	pc, [sp], #4
10003d20:	4770      	bx	lr
10003d22:	4770      	bx	lr

10003d24 <_tu_fifo_peek>:
10003d24:	f8b0 c004 	ldrh.w	ip, [r0, #4]
10003d28:	b510      	push	{r4, lr}
10003d2a:	429a      	cmp	r2, r3
10003d2c:	eba2 0403 	sub.w	r4, r2, r3
10003d30:	bf38      	it	cc
10003d32:	eb04 044c 	addcc.w	r4, r4, ip, lsl #1
10003d36:	b2a4      	uxth	r4, r4
10003d38:	468e      	mov	lr, r1
10003d3a:	b1dc      	cbz	r4, 10003d74 <_tu_fifo_peek+0x50>
10003d3c:	45a4      	cmp	ip, r4
10003d3e:	d20c      	bcs.n	10003d5a <_tu_fifo_peek+0x36>
10003d40:	4594      	cmp	ip, r2
10003d42:	bf94      	ite	ls
10003d44:	eba2 030c 	subls.w	r3, r2, ip
10003d48:	eb0c 0302 	addhi.w	r3, ip, r2
10003d4c:	b29b      	uxth	r3, r3
10003d4e:	459c      	cmp	ip, r3
10003d50:	8143      	strh	r3, [r0, #10]
10003d52:	d804      	bhi.n	10003d5e <_tu_fifo_peek+0x3a>
10003d54:	eba3 030c 	sub.w	r3, r3, ip
10003d58:	b29b      	uxth	r3, r3
10003d5a:	459c      	cmp	ip, r3
10003d5c:	d9fa      	bls.n	10003d54 <_tu_fifo_peek+0x30>
10003d5e:	88c2      	ldrh	r2, [r0, #6]
10003d60:	6801      	ldr	r1, [r0, #0]
10003d62:	f3c2 020e 	ubfx	r2, r2, #0, #15
10003d66:	4670      	mov	r0, lr
10003d68:	fb02 1103 	mla	r1, r2, r3, r1
10003d6c:	f000 fa24 	bl	100041b8 <memcpy>
10003d70:	2001      	movs	r0, #1
10003d72:	bd10      	pop	{r4, pc}
10003d74:	4620      	mov	r0, r4
10003d76:	bd10      	pop	{r4, pc}

10003d78 <_tu_fifo_peek_n.constprop.0>:
10003d78:	e92d 47f0 	stmdb	sp!, {r4, r5, r6, r7, r8, r9, sl, lr}
10003d7c:	f8bd 4020 	ldrh.w	r4, [sp, #32]
10003d80:	8885      	ldrh	r5, [r0, #4]
10003d82:	1b1e      	subs	r6, r3, r4
10003d84:	42a3      	cmp	r3, r4
10003d86:	bf38      	it	cc
10003d88:	eb06 0645 	addcc.w	r6, r6, r5, lsl #1
10003d8c:	b2b6      	uxth	r6, r6
10003d8e:	4607      	mov	r7, r0
10003d90:	4688      	mov	r8, r1
10003d92:	b1d6      	cbz	r6, 10003dca <_tu_fifo_peek_n.constprop.0+0x52>
10003d94:	42b5      	cmp	r5, r6
10003d96:	d330      	bcc.n	10003dfa <_tu_fifo_peek_n.constprop.0+0x82>
10003d98:	4296      	cmp	r6, r2
10003d9a:	bf28      	it	cs
10003d9c:	4616      	movcs	r6, r2
10003d9e:	42a5      	cmp	r5, r4
10003da0:	d803      	bhi.n	10003daa <_tu_fifo_peek_n.constprop.0+0x32>
10003da2:	1b64      	subs	r4, r4, r5
10003da4:	b2a4      	uxth	r4, r4
10003da6:	42a5      	cmp	r5, r4
10003da8:	d9fb      	bls.n	10003da2 <_tu_fifo_peek_n.constprop.0+0x2a>
10003daa:	88fa      	ldrh	r2, [r7, #6]
10003dac:	1b2b      	subs	r3, r5, r4
10003dae:	6839      	ldr	r1, [r7, #0]
10003db0:	b29b      	uxth	r3, r3
10003db2:	f3c2 0c0e 	ubfx	ip, r2, #0, #15
10003db6:	429e      	cmp	r6, r3
10003db8:	46e1      	mov	r9, ip
10003dba:	fb0c 1104 	mla	r1, ip, r4, r1
10003dbe:	d807      	bhi.n	10003dd0 <_tu_fifo_peek_n.constprop.0+0x58>
10003dc0:	4640      	mov	r0, r8
10003dc2:	fb0c f206 	mul.w	r2, ip, r6
10003dc6:	f000 f9f7 	bl	100041b8 <memcpy>
10003dca:	4630      	mov	r0, r6
10003dcc:	e8bd 87f0 	ldmia.w	sp!, {r4, r5, r6, r7, r8, r9, sl, pc}
10003dd0:	fb13 f30c 	smulbb	r3, r3, ip
10003dd4:	fa1f fa83 	uxth.w	sl, r3
10003dd8:	4652      	mov	r2, sl
10003dda:	4640      	mov	r0, r8
10003ddc:	f000 f9ec 	bl	100041b8 <memcpy>
10003de0:	1b72      	subs	r2, r6, r5
10003de2:	4422      	add	r2, r4
10003de4:	fb12 f209 	smulbb	r2, r2, r9
10003de8:	6839      	ldr	r1, [r7, #0]
10003dea:	eb08 000a 	add.w	r0, r8, sl
10003dee:	b292      	uxth	r2, r2
10003df0:	f000 f9e2 	bl	100041b8 <memcpy>
10003df4:	4630      	mov	r0, r6
10003df6:	e8bd 87f0 	ldmia.w	sp!, {r4, r5, r6, r7, r8, r9, sl, pc}
10003dfa:	429d      	cmp	r5, r3
10003dfc:	bf94      	ite	ls
10003dfe:	1b5b      	subls	r3, r3, r5
10003e00:	195b      	addhi	r3, r3, r5
10003e02:	b29c      	uxth	r4, r3
10003e04:	462e      	mov	r6, r5
10003e06:	8144      	strh	r4, [r0, #10]
10003e08:	e7c6      	b.n	10003d98 <_tu_fifo_peek_n.constprop.0+0x20>
10003e0a:	bf00      	nop

10003e0c <tu_fifo_config>:
10003e0c:	e92d 41f0 	stmdb	sp!, {r4, r5, r6, r7, r8, lr}
10003e10:	f5b2 4f00 	cmp.w	r2, #32768	; 0x8000
10003e14:	f89d 8018 	ldrb.w	r8, [sp, #24]
10003e18:	d827      	bhi.n	10003e6a <tu_fifo_config+0x5e>
10003e1a:	4604      	mov	r4, r0
10003e1c:	68c0      	ldr	r0, [r0, #12]
10003e1e:	4617      	mov	r7, r2
10003e20:	460e      	mov	r6, r1
10003e22:	461d      	mov	r5, r3
10003e24:	b118      	cbz	r0, 10003e2e <tu_fifo_config+0x22>
10003e26:	f04f 31ff 	mov.w	r1, #4294967295	; 0xffffffff
10003e2a:	f000 fae5 	bl	100043f8 <__mutex_enter_timeout_ms_veneer>
10003e2e:	6920      	ldr	r0, [r4, #16]
10003e30:	b118      	cbz	r0, 10003e3a <tu_fifo_config+0x2e>
10003e32:	f04f 31ff 	mov.w	r1, #4294967295	; 0xffffffff
10003e36:	f000 fadf 	bl	100043f8 <__mutex_enter_timeout_ms_veneer>
10003e3a:	2200      	movs	r2, #0
10003e3c:	f3c5 030e 	ubfx	r3, r5, #0, #15
10003e40:	68e0      	ldr	r0, [r4, #12]
10003e42:	ea43 33c8 	orr.w	r3, r3, r8, lsl #15
10003e46:	8162      	strh	r2, [r4, #10]
10003e48:	6026      	str	r6, [r4, #0]
10003e4a:	80a7      	strh	r7, [r4, #4]
10003e4c:	80e3      	strh	r3, [r4, #6]
10003e4e:	8122      	strh	r2, [r4, #8]
10003e50:	b108      	cbz	r0, 10003e56 <tu_fifo_config+0x4a>
10003e52:	f000 fab1 	bl	100043b8 <__mutex_exit_veneer>
10003e56:	6920      	ldr	r0, [r4, #16]
10003e58:	b120      	cbz	r0, 10003e64 <tu_fifo_config+0x58>
10003e5a:	f000 faad 	bl	100043b8 <__mutex_exit_veneer>
10003e5e:	2001      	movs	r0, #1
10003e60:	e8bd 81f0 	ldmia.w	sp!, {r4, r5, r6, r7, r8, pc}
10003e64:	2001      	movs	r0, #1
10003e66:	e8bd 81f0 	ldmia.w	sp!, {r4, r5, r6, r7, r8, pc}
10003e6a:	2000      	movs	r0, #0
10003e6c:	e8bd 81f0 	ldmia.w	sp!, {r4, r5, r6, r7, r8, pc}

10003e70 <tu_fifo_count>:
10003e70:	8903      	ldrh	r3, [r0, #8]
10003e72:	8942      	ldrh	r2, [r0, #10]
10003e74:	b29b      	uxth	r3, r3
10003e76:	b292      	uxth	r2, r2
10003e78:	8880      	ldrh	r0, [r0, #4]
10003e7a:	4293      	cmp	r3, r2
10003e7c:	bf36      	itet	cc
10003e7e:	ebc2 0240 	rsbcc	r2, r2, r0, lsl #1
10003e82:	1a9b      	subcs	r3, r3, r2
10003e84:	189b      	addcc	r3, r3, r2
10003e86:	b29b      	uxth	r3, r3
10003e88:	4298      	cmp	r0, r3
10003e8a:	bf28      	it	cs
10003e8c:	4618      	movcs	r0, r3
10003e8e:	4770      	bx	lr

10003e90 <tu_fifo_empty>:
10003e90:	8902      	ldrh	r2, [r0, #8]
10003e92:	8943      	ldrh	r3, [r0, #10]
10003e94:	b290      	uxth	r0, r2
10003e96:	b29b      	uxth	r3, r3
10003e98:	1ac0      	subs	r0, r0, r3
10003e9a:	fab0 f080 	clz	r0, r0
10003e9e:	0940      	lsrs	r0, r0, #5
10003ea0:	4770      	bx	lr
10003ea2:	bf00      	nop

10003ea4 <tu_fifo_remaining>:
10003ea4:	8903      	ldrh	r3, [r0, #8]
10003ea6:	8942      	ldrh	r2, [r0, #10]
10003ea8:	b29b      	uxth	r3, r3
10003eaa:	8880      	ldrh	r0, [r0, #4]
10003eac:	b292      	uxth	r2, r2
10003eae:	4293      	cmp	r3, r2
10003eb0:	bf36      	itet	cc
10003eb2:	ebc2 0240 	rsbcc	r2, r2, r0, lsl #1
10003eb6:	1a9b      	subcs	r3, r3, r2
10003eb8:	189b      	addcc	r3, r3, r2
10003eba:	b29b      	uxth	r3, r3
10003ebc:	4298      	cmp	r0, r3
10003ebe:	bf86      	itte	hi
10003ec0:	1ac0      	subhi	r0, r0, r3
10003ec2:	b280      	uxthhi	r0, r0
10003ec4:	2000      	movls	r0, #0
10003ec6:	4770      	bx	lr

10003ec8 <tu_fifo_read>:
10003ec8:	b538      	push	{r3, r4, r5, lr}
10003eca:	4604      	mov	r4, r0
10003ecc:	6900      	ldr	r0, [r0, #16]
10003ece:	460d      	mov	r5, r1
10003ed0:	b118      	cbz	r0, 10003eda <tu_fifo_read+0x12>
10003ed2:	f04f 31ff 	mov.w	r1, #4294967295	; 0xffffffff
10003ed6:	f000 fa8f 	bl	100043f8 <__mutex_enter_timeout_ms_veneer>
10003eda:	8922      	ldrh	r2, [r4, #8]
10003edc:	8963      	ldrh	r3, [r4, #10]
10003ede:	4629      	mov	r1, r5
10003ee0:	b29b      	uxth	r3, r3
10003ee2:	b292      	uxth	r2, r2
10003ee4:	4620      	mov	r0, r4
10003ee6:	f7ff ff1d 	bl	10003d24 <_tu_fifo_peek>
10003eea:	8962      	ldrh	r2, [r4, #10]
10003eec:	88a1      	ldrh	r1, [r4, #4]
10003eee:	b292      	uxth	r2, r2
10003ef0:	1813      	adds	r3, r2, r0
10003ef2:	b29b      	uxth	r3, r3
10003ef4:	429a      	cmp	r2, r3
10003ef6:	4605      	mov	r5, r0
10003ef8:	ea4f 0241 	mov.w	r2, r1, lsl #1
10003efc:	d809      	bhi.n	10003f12 <tu_fifo_read+0x4a>
10003efe:	ebb3 0f41 	cmp.w	r3, r1, lsl #1
10003f02:	da06      	bge.n	10003f12 <tu_fifo_read+0x4a>
10003f04:	6920      	ldr	r0, [r4, #16]
10003f06:	8163      	strh	r3, [r4, #10]
10003f08:	b108      	cbz	r0, 10003f0e <tu_fifo_read+0x46>
10003f0a:	f000 fa55 	bl	100043b8 <__mutex_exit_veneer>
10003f0e:	4628      	mov	r0, r5
10003f10:	bd38      	pop	{r3, r4, r5, pc}
10003f12:	1a9b      	subs	r3, r3, r2
10003f14:	b29b      	uxth	r3, r3
10003f16:	e7f5      	b.n	10003f04 <tu_fifo_read+0x3c>

10003f18 <tu_fifo_read_n>:
10003f18:	b530      	push	{r4, r5, lr}
10003f1a:	4604      	mov	r4, r0
10003f1c:	6900      	ldr	r0, [r0, #16]
10003f1e:	460d      	mov	r5, r1
10003f20:	b085      	sub	sp, #20
10003f22:	b128      	cbz	r0, 10003f30 <tu_fifo_read_n+0x18>
10003f24:	f04f 31ff 	mov.w	r1, #4294967295	; 0xffffffff
10003f28:	9203      	str	r2, [sp, #12]
10003f2a:	f000 fa65 	bl	100043f8 <__mutex_enter_timeout_ms_veneer>
10003f2e:	9a03      	ldr	r2, [sp, #12]
10003f30:	8923      	ldrh	r3, [r4, #8]
10003f32:	8960      	ldrh	r0, [r4, #10]
10003f34:	4629      	mov	r1, r5
10003f36:	b280      	uxth	r0, r0
10003f38:	9000      	str	r0, [sp, #0]
10003f3a:	b29b      	uxth	r3, r3
10003f3c:	4620      	mov	r0, r4
10003f3e:	f7ff ff1b 	bl	10003d78 <_tu_fifo_peek_n.constprop.0>
10003f42:	8962      	ldrh	r2, [r4, #10]
10003f44:	88a1      	ldrh	r1, [r4, #4]
10003f46:	b292      	uxth	r2, r2
10003f48:	1883      	adds	r3, r0, r2
10003f4a:	b29b      	uxth	r3, r3
10003f4c:	429a      	cmp	r2, r3
10003f4e:	4605      	mov	r5, r0
10003f50:	ea4f 0241 	mov.w	r2, r1, lsl #1
10003f54:	d80a      	bhi.n	10003f6c <tu_fifo_read_n+0x54>
10003f56:	ebb3 0f41 	cmp.w	r3, r1, lsl #1
10003f5a:	da07      	bge.n	10003f6c <tu_fifo_read_n+0x54>
10003f5c:	6920      	ldr	r0, [r4, #16]
10003f5e:	8163      	strh	r3, [r4, #10]
10003f60:	b108      	cbz	r0, 10003f66 <tu_fifo_read_n+0x4e>
10003f62:	f000 fa29 	bl	100043b8 <__mutex_exit_veneer>
10003f66:	4628      	mov	r0, r5
10003f68:	b005      	add	sp, #20
10003f6a:	bd30      	pop	{r4, r5, pc}
10003f6c:	1a9b      	subs	r3, r3, r2
10003f6e:	b29b      	uxth	r3, r3
10003f70:	e7f4      	b.n	10003f5c <tu_fifo_read_n+0x44>
10003f72:	bf00      	nop

10003f74 <tu_fifo_write>:
10003f74:	b5f8      	push	{r3, r4, r5, r6, r7, lr}
10003f76:	4604      	mov	r4, r0
10003f78:	68c0      	ldr	r0, [r0, #12]
10003f7a:	460e      	mov	r6, r1
10003f7c:	b118      	cbz	r0, 10003f86 <tu_fifo_write+0x12>
10003f7e:	f04f 31ff 	mov.w	r1, #4294967295	; 0xffffffff
10003f82:	f000 fa39 	bl	100043f8 <__mutex_enter_timeout_ms_veneer>
10003f86:	8925      	ldrh	r5, [r4, #8]
10003f88:	8923      	ldrh	r3, [r4, #8]
10003f8a:	8961      	ldrh	r1, [r4, #10]
10003f8c:	b29b      	uxth	r3, r3
10003f8e:	b289      	uxth	r1, r1
10003f90:	88a2      	ldrh	r2, [r4, #4]
10003f92:	428b      	cmp	r3, r1
10003f94:	bf36      	itet	cc
10003f96:	ebc1 0142 	rsbcc	r1, r1, r2, lsl #1
10003f9a:	1a5b      	subcs	r3, r3, r1
10003f9c:	185b      	addcc	r3, r3, r1
10003f9e:	b29b      	uxth	r3, r3
10003fa0:	429a      	cmp	r2, r3
10003fa2:	b2ad      	uxth	r5, r5
10003fa4:	d808      	bhi.n	10003fb8 <tu_fifo_write+0x44>
10003fa6:	79e7      	ldrb	r7, [r4, #7]
10003fa8:	09ff      	lsrs	r7, r7, #7
10003faa:	d105      	bne.n	10003fb8 <tu_fifo_write+0x44>
10003fac:	68e0      	ldr	r0, [r4, #12]
10003fae:	b108      	cbz	r0, 10003fb4 <tu_fifo_write+0x40>
10003fb0:	f000 fa02 	bl	100043b8 <__mutex_exit_veneer>
10003fb4:	4638      	mov	r0, r7
10003fb6:	bdf8      	pop	{r3, r4, r5, r6, r7, pc}
10003fb8:	4295      	cmp	r5, r2
10003fba:	462b      	mov	r3, r5
10003fbc:	d303      	bcc.n	10003fc6 <tu_fifo_write+0x52>
10003fbe:	1a9b      	subs	r3, r3, r2
10003fc0:	b29b      	uxth	r3, r3
10003fc2:	4293      	cmp	r3, r2
10003fc4:	d2fb      	bcs.n	10003fbe <tu_fifo_write+0x4a>
10003fc6:	88e2      	ldrh	r2, [r4, #6]
10003fc8:	6820      	ldr	r0, [r4, #0]
10003fca:	f3c2 020e 	ubfx	r2, r2, #0, #15
10003fce:	fb02 0003 	mla	r0, r2, r3, r0
10003fd2:	4631      	mov	r1, r6
10003fd4:	f000 f8f0 	bl	100041b8 <memcpy>
10003fd8:	1c6b      	adds	r3, r5, #1
10003fda:	88a2      	ldrh	r2, [r4, #4]
10003fdc:	b29b      	uxth	r3, r3
10003fde:	429d      	cmp	r5, r3
10003fe0:	ea4f 0142 	mov.w	r1, r2, lsl #1
10003fe4:	d904      	bls.n	10003ff0 <tu_fifo_write+0x7c>
10003fe6:	1a5b      	subs	r3, r3, r1
10003fe8:	b29b      	uxth	r3, r3
10003fea:	2701      	movs	r7, #1
10003fec:	8123      	strh	r3, [r4, #8]
10003fee:	e7dd      	b.n	10003fac <tu_fifo_write+0x38>
10003ff0:	ebb3 0f42 	cmp.w	r3, r2, lsl #1
10003ff4:	dbf9      	blt.n	10003fea <tu_fifo_write+0x76>
10003ff6:	e7f6      	b.n	10003fe6 <tu_fifo_write+0x72>

10003ff8 <tu_fifo_write_n>:
10003ff8:	e92d 4ff0 	stmdb	sp!, {r4, r5, r6, r7, r8, r9, sl, fp, lr}
10003ffc:	4614      	mov	r4, r2
10003ffe:	b083      	sub	sp, #12
10004000:	2a00      	cmp	r2, #0
10004002:	d057      	beq.n	100040b4 <tu_fifo_write_n+0xbc>
10004004:	4606      	mov	r6, r0
10004006:	68c0      	ldr	r0, [r0, #12]
10004008:	468b      	mov	fp, r1
1000400a:	b118      	cbz	r0, 10004014 <tu_fifo_write_n+0x1c>
1000400c:	f04f 31ff 	mov.w	r1, #4294967295	; 0xffffffff
10004010:	f000 f9f2 	bl	100043f8 <__mutex_enter_timeout_ms_veneer>
10004014:	79f2      	ldrb	r2, [r6, #7]
10004016:	8937      	ldrh	r7, [r6, #8]
10004018:	8973      	ldrh	r3, [r6, #10]
1000401a:	09d2      	lsrs	r2, r2, #7
1000401c:	88b5      	ldrh	r5, [r6, #4]
1000401e:	b2bf      	uxth	r7, r7
10004020:	b29b      	uxth	r3, r3
10004022:	d13a      	bne.n	1000409a <tu_fifo_write_n+0xa2>
10004024:	429f      	cmp	r7, r3
10004026:	bf36      	itet	cc
10004028:	ebc3 0345 	rsbcc	r3, r3, r5, lsl #1
1000402c:	1afb      	subcs	r3, r7, r3
1000402e:	19db      	addcc	r3, r3, r7
10004030:	b29b      	uxth	r3, r3
10004032:	429d      	cmp	r5, r3
10004034:	d943      	bls.n	100040be <tu_fifo_write_n+0xc6>
10004036:	eba5 0803 	sub.w	r8, r5, r3
1000403a:	fa1f f888 	uxth.w	r8, r8
1000403e:	45a0      	cmp	r8, r4
10004040:	bf28      	it	cs
10004042:	46a0      	movcs	r8, r4
10004044:	f8b6 a006 	ldrh.w	sl, [r6, #6]
10004048:	eb08 0907 	add.w	r9, r8, r7
1000404c:	fa1f f989 	uxth.w	r9, r9
10004050:	42bd      	cmp	r5, r7
10004052:	463c      	mov	r4, r7
10004054:	d803      	bhi.n	1000405e <tu_fifo_write_n+0x66>
10004056:	1b64      	subs	r4, r4, r5
10004058:	b2a4      	uxth	r4, r4
1000405a:	42ac      	cmp	r4, r5
1000405c:	d2fb      	bcs.n	10004056 <tu_fifo_write_n+0x5e>
1000405e:	1b2b      	subs	r3, r5, r4
10004060:	6830      	ldr	r0, [r6, #0]
10004062:	b29b      	uxth	r3, r3
10004064:	f3ca 020e 	ubfx	r2, sl, #0, #15
10004068:	4543      	cmp	r3, r8
1000406a:	4692      	mov	sl, r2
1000406c:	fb02 0004 	mla	r0, r2, r4, r0
10004070:	d34e      	bcc.n	10004110 <tu_fifo_write_n+0x118>
10004072:	4659      	mov	r1, fp
10004074:	fb02 f208 	mul.w	r2, r2, r8
10004078:	f000 f89e 	bl	100041b8 <memcpy>
1000407c:	88b2      	ldrh	r2, [r6, #4]
1000407e:	45b9      	cmp	r9, r7
10004080:	ea4f 0342 	mov.w	r3, r2, lsl #1
10004084:	d302      	bcc.n	1000408c <tu_fifo_write_n+0x94>
10004086:	ebb9 0f42 	cmp.w	r9, r2, lsl #1
1000408a:	db03      	blt.n	10004094 <tu_fifo_write_n+0x9c>
1000408c:	eba9 0903 	sub.w	r9, r9, r3
10004090:	fa1f f989 	uxth.w	r9, r9
10004094:	f8a6 9008 	strh.w	r9, [r6, #8]
10004098:	e013      	b.n	100040c2 <tu_fifo_write_n+0xca>
1000409a:	42ac      	cmp	r4, r5
1000409c:	46a8      	mov	r8, r5
1000409e:	d319      	bcc.n	100040d4 <tu_fifo_write_n+0xdc>
100040a0:	f8b6 a006 	ldrh.w	sl, [r6, #6]
100040a4:	1b64      	subs	r4, r4, r5
100040a6:	f3ca 020e 	ubfx	r2, sl, #0, #15
100040aa:	fb02 bb04 	mla	fp, r2, r4, fp
100040ae:	b145      	cbz	r5, 100040c2 <tu_fifo_write_n+0xca>
100040b0:	461f      	mov	r7, r3
100040b2:	e7c9      	b.n	10004048 <tu_fifo_write_n+0x50>
100040b4:	4690      	mov	r8, r2
100040b6:	4640      	mov	r0, r8
100040b8:	b003      	add	sp, #12
100040ba:	e8bd 8ff0 	ldmia.w	sp!, {r4, r5, r6, r7, r8, r9, sl, fp, pc}
100040be:	f04f 0800 	mov.w	r8, #0
100040c2:	68f0      	ldr	r0, [r6, #12]
100040c4:	2800      	cmp	r0, #0
100040c6:	d0f6      	beq.n	100040b6 <tu_fifo_write_n+0xbe>
100040c8:	f000 f976 	bl	100043b8 <__mutex_exit_veneer>
100040cc:	4640      	mov	r0, r8
100040ce:	b003      	add	sp, #12
100040d0:	e8bd 8ff0 	ldmia.w	sp!, {r4, r5, r6, r7, r8, r9, sl, fp, pc}
100040d4:	429f      	cmp	r7, r3
100040d6:	bf36      	itet	cc
100040d8:	ebc3 0245 	rsbcc	r2, r3, r5, lsl #1
100040dc:	1afa      	subcs	r2, r7, r3
100040de:	19d2      	addcc	r2, r2, r7
100040e0:	b292      	uxth	r2, r2
100040e2:	0069      	lsls	r1, r5, #1
100040e4:	4422      	add	r2, r4
100040e6:	428a      	cmp	r2, r1
100040e8:	db0a      	blt.n	10004100 <tu_fifo_write_n+0x108>
100040ea:	eb03 0905 	add.w	r9, r3, r5
100040ee:	fa1f f989 	uxth.w	r9, r9
100040f2:	eba9 0704 	sub.w	r7, r9, r4
100040f6:	b2bf      	uxth	r7, r7
100040f8:	42bb      	cmp	r3, r7
100040fa:	d91d      	bls.n	10004138 <tu_fifo_write_n+0x140>
100040fc:	1a7f      	subs	r7, r7, r1
100040fe:	b2bf      	uxth	r7, r7
10004100:	eb04 0907 	add.w	r9, r4, r7
10004104:	46a0      	mov	r8, r4
10004106:	f8b6 a006 	ldrh.w	sl, [r6, #6]
1000410a:	fa1f f989 	uxth.w	r9, r9
1000410e:	e79f      	b.n	10004050 <tu_fifo_write_n+0x58>
10004110:	fb13 f302 	smulbb	r3, r3, r2
10004114:	4659      	mov	r1, fp
10004116:	b29a      	uxth	r2, r3
10004118:	9201      	str	r2, [sp, #4]
1000411a:	f000 f84d 	bl	100041b8 <memcpy>
1000411e:	9a01      	ldr	r2, [sp, #4]
10004120:	6830      	ldr	r0, [r6, #0]
10004122:	eb0b 0102 	add.w	r1, fp, r2
10004126:	eba8 0205 	sub.w	r2, r8, r5
1000412a:	4422      	add	r2, r4
1000412c:	fb12 f20a 	smulbb	r2, r2, sl
10004130:	b292      	uxth	r2, r2
10004132:	f000 f841 	bl	100041b8 <memcpy>
10004136:	e7a1      	b.n	1000407c <tu_fifo_write_n+0x84>
10004138:	42b9      	cmp	r1, r7
1000413a:	dddf      	ble.n	100040fc <tu_fifo_write_n+0x104>
1000413c:	46a0      	mov	r8, r4
1000413e:	f8b6 a006 	ldrh.w	sl, [r6, #6]
10004142:	e785      	b.n	10004050 <tu_fifo_write_n+0x58>

10004144 <tu_fifo_clear>:
10004144:	b510      	push	{r4, lr}
10004146:	4604      	mov	r4, r0
10004148:	68c0      	ldr	r0, [r0, #12]
1000414a:	b118      	cbz	r0, 10004154 <tu_fifo_clear+0x10>
1000414c:	f04f 31ff 	mov.w	r1, #4294967295	; 0xffffffff
10004150:	f000 f952 	bl	100043f8 <__mutex_enter_timeout_ms_veneer>
10004154:	6920      	ldr	r0, [r4, #16]
10004156:	b118      	cbz	r0, 10004160 <tu_fifo_clear+0x1c>
10004158:	f04f 31ff 	mov.w	r1, #4294967295	; 0xffffffff
1000415c:	f000 f94c 	bl	100043f8 <__mutex_enter_timeout_ms_veneer>
10004160:	2300      	movs	r3, #0
10004162:	68e0      	ldr	r0, [r4, #12]
10004164:	8163      	strh	r3, [r4, #10]
10004166:	8123      	strh	r3, [r4, #8]
10004168:	b108      	cbz	r0, 1000416e <tu_fifo_clear+0x2a>
1000416a:	f000 f925 	bl	100043b8 <__mutex_exit_veneer>
1000416e:	6920      	ldr	r0, [r4, #16]
10004170:	b108      	cbz	r0, 10004176 <tu_fifo_clear+0x32>
10004172:	f000 f921 	bl	100043b8 <__mutex_exit_veneer>
10004176:	2001      	movs	r0, #1
10004178:	bd10      	pop	{r4, pc}
1000417a:	bf00      	nop

1000417c <tu_fifo_set_overwritable>:
1000417c:	b538      	push	{r3, r4, r5, lr}
1000417e:	4604      	mov	r4, r0
10004180:	68c0      	ldr	r0, [r0, #12]
10004182:	460d      	mov	r5, r1
10004184:	b118      	cbz	r0, 1000418e <tu_fifo_set_overwritable+0x12>
10004186:	f04f 31ff 	mov.w	r1, #4294967295	; 0xffffffff
1000418a:	f000 f935 	bl	100043f8 <__mutex_enter_timeout_ms_veneer>
1000418e:	6920      	ldr	r0, [r4, #16]
10004190:	b118      	cbz	r0, 1000419a <tu_fifo_set_overwritable+0x1e>
10004192:	f04f 31ff 	mov.w	r1, #4294967295	; 0xffffffff
10004196:	f000 f92f 	bl	100043f8 <__mutex_enter_timeout_ms_veneer>
1000419a:	79e3      	ldrb	r3, [r4, #7]
1000419c:	68e0      	ldr	r0, [r4, #12]
1000419e:	f365 13c7 	bfi	r3, r5, #7, #1
100041a2:	71e3      	strb	r3, [r4, #7]
100041a4:	b108      	cbz	r0, 100041aa <tu_fifo_set_overwritable+0x2e>
100041a6:	f000 f907 	bl	100043b8 <__mutex_exit_veneer>
100041aa:	6920      	ldr	r0, [r4, #16]
100041ac:	b108      	cbz	r0, 100041b2 <tu_fifo_set_overwritable+0x36>
100041ae:	f000 f903 	bl	100043b8 <__mutex_exit_veneer>
100041b2:	2001      	movs	r0, #1
100041b4:	bd38      	pop	{r3, r4, r5, pc}
100041b6:	bf00      	nop

100041b8 <memcpy>:
100041b8:	4684      	mov	ip, r0
100041ba:	ea41 0300 	orr.w	r3, r1, r0
100041be:	f013 0303 	ands.w	r3, r3, #3
100041c2:	d149      	bne.n	10004258 <memcpy+0xa0>
100041c4:	3a40      	subs	r2, #64	; 0x40
100041c6:	d323      	bcc.n	10004210 <memcpy+0x58>
100041c8:	680b      	ldr	r3, [r1, #0]
100041ca:	6003      	str	r3, [r0, #0]
100041cc:	684b      	ldr	r3, [r1, #4]
100041ce:	6043      	str	r3, [r0, #4]
100041d0:	688b      	ldr	r3, [r1, #8]
100041d2:	6083      	str	r3, [r0, #8]
100041d4:	68cb      	ldr	r3, [r1, #12]
100041d6:	60c3      	str	r3, [r0, #12]
100041d8:	690b      	ldr	r3, [r1, #16]
100041da:	6103      	str	r3, [r0, #16]
100041dc:	694b      	ldr	r3, [r1, #20]
100041de:	6143      	str	r3, [r0, #20]
100041e0:	698b      	ldr	r3, [r1, #24]
100041e2:	6183      	str	r3, [r0, #24]
100041e4:	69cb      	ldr	r3, [r1, #28]
100041e6:	61c3      	str	r3, [r0, #28]
100041e8:	6a0b      	ldr	r3, [r1, #32]
100041ea:	6203      	str	r3, [r0, #32]
100041ec:	6a4b      	ldr	r3, [r1, #36]	; 0x24
100041ee:	6243      	str	r3, [r0, #36]	; 0x24
100041f0:	6a8b      	ldr	r3, [r1, #40]	; 0x28
100041f2:	6283      	str	r3, [r0, #40]	; 0x28
100041f4:	6acb      	ldr	r3, [r1, #44]	; 0x2c
100041f6:	62c3      	str	r3, [r0, #44]	; 0x2c
100041f8:	6b0b      	ldr	r3, [r1, #48]	; 0x30
100041fa:	6303      	str	r3, [r0, #48]	; 0x30
100041fc:	6b4b      	ldr	r3, [r1, #52]	; 0x34
100041fe:	6343      	str	r3, [r0, #52]	; 0x34
10004200:	6b8b      	ldr	r3, [r1, #56]	; 0x38
10004202:	6383      	str	r3, [r0, #56]	; 0x38
10004204:	6bcb      	ldr	r3, [r1, #60]	; 0x3c
10004206:	63c3      	str	r3, [r0, #60]	; 0x3c
10004208:	3040      	adds	r0, #64	; 0x40
1000420a:	3140      	adds	r1, #64	; 0x40
1000420c:	3a40      	subs	r2, #64	; 0x40
1000420e:	d2db      	bcs.n	100041c8 <memcpy+0x10>
10004210:	3230      	adds	r2, #48	; 0x30
10004212:	d30b      	bcc.n	1000422c <memcpy+0x74>
10004214:	680b      	ldr	r3, [r1, #0]
10004216:	6003      	str	r3, [r0, #0]
10004218:	684b      	ldr	r3, [r1, #4]
1000421a:	6043      	str	r3, [r0, #4]
1000421c:	688b      	ldr	r3, [r1, #8]
1000421e:	6083      	str	r3, [r0, #8]
10004220:	68cb      	ldr	r3, [r1, #12]
10004222:	60c3      	str	r3, [r0, #12]
10004224:	3010      	adds	r0, #16
10004226:	3110      	adds	r1, #16
10004228:	3a10      	subs	r2, #16
1000422a:	d2f3      	bcs.n	10004214 <memcpy+0x5c>
1000422c:	320c      	adds	r2, #12
1000422e:	d305      	bcc.n	1000423c <memcpy+0x84>
10004230:	f851 3b04 	ldr.w	r3, [r1], #4
10004234:	f840 3b04 	str.w	r3, [r0], #4
10004238:	3a04      	subs	r2, #4
1000423a:	d2f9      	bcs.n	10004230 <memcpy+0x78>
1000423c:	3204      	adds	r2, #4
1000423e:	d008      	beq.n	10004252 <memcpy+0x9a>
10004240:	07d2      	lsls	r2, r2, #31
10004242:	bf1c      	itt	ne
10004244:	f811 3b01 	ldrbne.w	r3, [r1], #1
10004248:	f800 3b01 	strbne.w	r3, [r0], #1
1000424c:	d301      	bcc.n	10004252 <memcpy+0x9a>
1000424e:	880b      	ldrh	r3, [r1, #0]
10004250:	8003      	strh	r3, [r0, #0]
10004252:	4660      	mov	r0, ip
10004254:	4770      	bx	lr
10004256:	bf00      	nop
10004258:	2a08      	cmp	r2, #8
1000425a:	d313      	bcc.n	10004284 <memcpy+0xcc>
1000425c:	078b      	lsls	r3, r1, #30
1000425e:	d0b1      	beq.n	100041c4 <memcpy+0xc>
10004260:	f010 0303 	ands.w	r3, r0, #3
10004264:	d0ae      	beq.n	100041c4 <memcpy+0xc>
10004266:	f1c3 0304 	rsb	r3, r3, #4
1000426a:	1ad2      	subs	r2, r2, r3
1000426c:	07db      	lsls	r3, r3, #31
1000426e:	bf1c      	itt	ne
10004270:	f811 3b01 	ldrbne.w	r3, [r1], #1
10004274:	f800 3b01 	strbne.w	r3, [r0], #1
10004278:	d3a4      	bcc.n	100041c4 <memcpy+0xc>
1000427a:	f831 3b02 	ldrh.w	r3, [r1], #2
1000427e:	f820 3b02 	strh.w	r3, [r0], #2
10004282:	e79f      	b.n	100041c4 <memcpy+0xc>
10004284:	3a04      	subs	r2, #4
10004286:	d3d9      	bcc.n	1000423c <memcpy+0x84>
10004288:	3a01      	subs	r2, #1
1000428a:	f811 3b01 	ldrb.w	r3, [r1], #1
1000428e:	f800 3b01 	strb.w	r3, [r0], #1
10004292:	d2f9      	bcs.n	10004288 <memcpy+0xd0>
10004294:	780b      	ldrb	r3, [r1, #0]
10004296:	7003      	strb	r3, [r0, #0]
10004298:	784b      	ldrb	r3, [r1, #1]
1000429a:	7043      	strb	r3, [r0, #1]
1000429c:	788b      	ldrb	r3, [r1, #2]
1000429e:	7083      	strb	r3, [r0, #2]
100042a0:	4660      	mov	r0, ip
100042a2:	4770      	bx	lr

100042a4 <memset>:
100042a4:	b570      	push	{r4, r5, r6, lr}
100042a6:	0786      	lsls	r6, r0, #30
100042a8:	d048      	beq.n	1000433c <memset+0x98>
100042aa:	1e54      	subs	r4, r2, #1
100042ac:	2a00      	cmp	r2, #0
100042ae:	d03f      	beq.n	10004330 <memset+0x8c>
100042b0:	b2ca      	uxtb	r2, r1
100042b2:	4603      	mov	r3, r0
100042b4:	e001      	b.n	100042ba <memset+0x16>
100042b6:	3c01      	subs	r4, #1
100042b8:	d33a      	bcc.n	10004330 <memset+0x8c>
100042ba:	f803 2b01 	strb.w	r2, [r3], #1
100042be:	079d      	lsls	r5, r3, #30
100042c0:	d1f9      	bne.n	100042b6 <memset+0x12>
100042c2:	2c03      	cmp	r4, #3
100042c4:	d92d      	bls.n	10004322 <memset+0x7e>
100042c6:	b2cd      	uxtb	r5, r1
100042c8:	2c0f      	cmp	r4, #15
100042ca:	ea45 2505 	orr.w	r5, r5, r5, lsl #8
100042ce:	ea45 4505 	orr.w	r5, r5, r5, lsl #16
100042d2:	d936      	bls.n	10004342 <memset+0x9e>
100042d4:	f1a4 0c10 	sub.w	ip, r4, #16
100042d8:	f103 0e20 	add.w	lr, r3, #32
100042dc:	f103 0210 	add.w	r2, r3, #16
100042e0:	f02c 060f 	bic.w	r6, ip, #15
100042e4:	ea4f 1c1c 	mov.w	ip, ip, lsr #4
100042e8:	44b6      	add	lr, r6
100042ea:	e942 5504 	strd	r5, r5, [r2, #-16]
100042ee:	e942 5502 	strd	r5, r5, [r2, #-8]
100042f2:	3210      	adds	r2, #16
100042f4:	4572      	cmp	r2, lr
100042f6:	d1f8      	bne.n	100042ea <memset+0x46>
100042f8:	f10c 0201 	add.w	r2, ip, #1
100042fc:	f014 0f0c 	tst.w	r4, #12
10004300:	f004 0c0f 	and.w	ip, r4, #15
10004304:	eb03 1202 	add.w	r2, r3, r2, lsl #4
10004308:	d013      	beq.n	10004332 <memset+0x8e>
1000430a:	f1ac 0304 	sub.w	r3, ip, #4
1000430e:	f023 0303 	bic.w	r3, r3, #3
10004312:	3304      	adds	r3, #4
10004314:	4413      	add	r3, r2
10004316:	f842 5b04 	str.w	r5, [r2], #4
1000431a:	4293      	cmp	r3, r2
1000431c:	d1fb      	bne.n	10004316 <memset+0x72>
1000431e:	f00c 0403 	and.w	r4, ip, #3
10004322:	b12c      	cbz	r4, 10004330 <memset+0x8c>
10004324:	b2ca      	uxtb	r2, r1
10004326:	441c      	add	r4, r3
10004328:	f803 2b01 	strb.w	r2, [r3], #1
1000432c:	429c      	cmp	r4, r3
1000432e:	d1fb      	bne.n	10004328 <memset+0x84>
10004330:	bd70      	pop	{r4, r5, r6, pc}
10004332:	4664      	mov	r4, ip
10004334:	4613      	mov	r3, r2
10004336:	2c00      	cmp	r4, #0
10004338:	d1f4      	bne.n	10004324 <memset+0x80>
1000433a:	e7f9      	b.n	10004330 <memset+0x8c>
1000433c:	4603      	mov	r3, r0
1000433e:	4614      	mov	r4, r2
10004340:	e7bf      	b.n	100042c2 <memset+0x1e>
10004342:	461a      	mov	r2, r3
10004344:	46a4      	mov	ip, r4
10004346:	e7e0      	b.n	1000430a <memset+0x66>

10004348 <strlen>:
10004348:	f020 0103 	bic.w	r1, r0, #3
1000434c:	f010 0003 	ands.w	r0, r0, #3
10004350:	f1c0 0000 	rsb	r0, r0, #0
10004354:	f851 3b04 	ldr.w	r3, [r1], #4
10004358:	f100 0c04 	add.w	ip, r0, #4
1000435c:	ea4f 0ccc 	mov.w	ip, ip, lsl #3
10004360:	f06f 0200 	mvn.w	r2, #0
10004364:	bf1c      	itt	ne
10004366:	fa22 f20c 	lsrne.w	r2, r2, ip
1000436a:	4313      	orrne	r3, r2
1000436c:	f04f 0c01 	mov.w	ip, #1
10004370:	ea4c 2c0c 	orr.w	ip, ip, ip, lsl #8
10004374:	ea4c 4c0c 	orr.w	ip, ip, ip, lsl #16
10004378:	eba3 020c 	sub.w	r2, r3, ip
1000437c:	ea22 0203 	bic.w	r2, r2, r3
10004380:	ea12 12cc 	ands.w	r2, r2, ip, lsl #7
10004384:	bf04      	itt	eq
10004386:	f851 3b04 	ldreq.w	r3, [r1], #4
1000438a:	3004      	addeq	r0, #4
1000438c:	d0f4      	beq.n	10004378 <strlen+0x30>
1000438e:	f1c2 0100 	rsb	r1, r2, #0
10004392:	ea02 0201 	and.w	r2, r2, r1
10004396:	fab2 f282 	clz	r2, r2
1000439a:	f1c2 021f 	rsb	r2, r2, #31
1000439e:	eb00 00d2 	add.w	r0, r0, r2, lsr #3
100043a2:	4770      	bx	lr

100043a4 <_fini>:
100043a4:	b5f8      	push	{r3, r4, r5, r6, r7, lr}
100043a6:	bf00      	nop

100043a8 <__e15_is_critical_frame_period_veneer>:
100043a8:	b401      	push	{r0}
100043aa:	4802      	ldr	r0, [pc, #8]	; (100043b4 <__e15_is_critical_frame_period_veneer+0xc>)
100043ac:	4684      	mov	ip, r0
100043ae:	bc01      	pop	{r0}
100043b0:	4760      	bx	ip
100043b2:	bf00      	nop
100043b4:	20000675 	.word	0x20000675

100043b8 <__mutex_exit_veneer>:
100043b8:	b401      	push	{r0}
100043ba:	4802      	ldr	r0, [pc, #8]	; (100043c4 <__mutex_exit_veneer+0xc>)
100043bc:	4684      	mov	ip, r0
100043be:	bc01      	pop	{r0}
100043c0:	4760      	bx	ip
100043c2:	bf00      	nop
100043c4:	20000269 	.word	0x20000269

100043c8 <__reset_non_control_endpoints_veneer>:
100043c8:	b401      	push	{r0}
100043ca:	4802      	ldr	r0, [pc, #8]	; (100043d4 <__reset_non_control_endpoints_veneer+0xc>)
100043cc:	4684      	mov	ip, r0
100043ce:	bc01      	pop	{r0}
100043d0:	4760      	bx	ip
100043d2:	bf00      	nop
100043d4:	200002a5 	.word	0x200002a5

100043d8 <__e15_is_bulkin_ep_veneer>:
100043d8:	b401      	push	{r0}
100043da:	4802      	ldr	r0, [pc, #8]	; (100043e4 <__e15_is_bulkin_ep_veneer+0xc>)
100043dc:	4684      	mov	ip, r0
100043de:	bc01      	pop	{r0}
100043e0:	4760      	bx	ip
100043e2:	bf00      	nop
100043e4:	2000064d 	.word	0x2000064d

100043e8 <__mutex_try_enter_veneer>:
100043e8:	b401      	push	{r0}
100043ea:	4802      	ldr	r0, [pc, #8]	; (100043f4 <__mutex_try_enter_veneer+0xc>)
100043ec:	4684      	mov	ip, r0
100043ee:	bc01      	pop	{r0}
100043f0:	4760      	bx	ip
100043f2:	bf00      	nop
100043f4:	20000111 	.word	0x20000111

100043f8 <__mutex_enter_timeout_ms_veneer>:
100043f8:	b401      	push	{r0}
100043fa:	4802      	ldr	r0, [pc, #8]	; (10004404 <__mutex_enter_timeout_ms_veneer+0xc>)
100043fc:	4684      	mov	ip, r0
100043fe:	bc01      	pop	{r0}
10004400:	4760      	bx	ip
10004402:	bf00      	nop
10004404:	2000023d 	.word	0x2000023d

10004408 <__mutex_try_enter_block_until_veneer>:
10004408:	b401      	push	{r0}
1000440a:	4802      	ldr	r0, [pc, #8]	; (10004414 <__mutex_try_enter_block_until_veneer+0xc>)
1000440c:	4684      	mov	ip, r0
1000440e:	bc01      	pop	{r0}
10004410:	4760      	bx	ip
10004412:	bf00      	nop
10004414:	200001d1 	.word	0x200001d1

10004418 <__hw_endpoint_start_next_buffer_veneer>:
10004418:	b401      	push	{r0}
1000441a:	4802      	ldr	r0, [pc, #8]	; (10004424 <__hw_endpoint_start_next_buffer_veneer+0xc>)
1000441c:	4684      	mov	ip, r0
1000441e:	bc01      	pop	{r0}
10004420:	4760      	bx	ip
10004422:	bf00      	nop
10004424:	200006ed 	.word	0x200006ed

10004428 <__hw_endpoint_reset_transfer_veneer>:
10004428:	b401      	push	{r0}
1000442a:	4802      	ldr	r0, [pc, #8]	; (10004434 <__hw_endpoint_reset_transfer_veneer+0xc>)
1000442c:	4684      	mov	ip, r0
1000442e:	bc01      	pop	{r0}
10004430:	4760      	bx	ip
10004432:	bf00      	nop
10004434:	2000069d 	.word	0x2000069d

10004438 <___hw_endpoint_buffer_control_update32_veneer>:
10004438:	b401      	push	{r0}
1000443a:	4802      	ldr	r0, [pc, #8]	; (10004444 <___hw_endpoint_buffer_control_update32_veneer+0xc>)
1000443c:	4684      	mov	ip, r0
1000443e:	bc01      	pop	{r0}
10004440:	4760      	bx	ip
10004442:	bf00      	nop
10004444:	200006a9 	.word	0x200006a9

10004448 <__pre_init_runtime_init_bootrom_reset>:
10004448:	100019e5                                ....

1000444c <__pre_init_runtime_init_early_resets>:
1000444c:	10001959                                Y...

10004450 <__pre_init_runtime_init_usb_power_down>:
10004450:	1000198d                                ....

10004454 <__pre_init_runtime_init_clocks>:
10004454:	10001a31                                1...

10004458 <__pre_init_runtime_init_post_clock_resets>:
10004458:	100019c5                                ....

1000445c <__pre_init_runtime_init_boot_locks_reset>:
1000445c:	100018c1                                ....

10004460 <__pre_init_runtime_init_spin_locks_reset>:
10004460:	10001a0d                                ....

10004464 <__pre_init_runtime_init_bootrom_locking_enable>:
10004464:	100018ad                                ....

10004468 <__pre_init_runtime_init_mutex>:
10004468:	10000cc9                                ....

1000446c <__pre_init_runtime_init_install_ram_vector_table>:
1000446c:	10001a11                                ....

10004470 <__pre_init_runtime_init_default_alarm_pool>:
10004470:	10001099                                ....

10004474 <__pre_init_first_per_core_initializer>:
10004474:	10001909                                ....

10004478 <__pre_init_runtime_init_per_core_bootrom_reset>:
10004478:	100019f9                                ....

1000447c <__pre_init_runtime_init_per_core_enable_coprocessors>:
1000447c:	100019a9                                ....

10004480 <__pre_init_spinlock_set_extexclall>:
10004480:	10000825                                %...

10004484 <__pre_init_runtime_init_per_core_irq_priorities>:
10004484:	100008fd                                ....

10004488 <__frame_dummy_init_array_entry>:
10004488:	10000215 10002381                       .....#..

Disassembly of section .data:

20000110 <mutex_try_enter>:
20000110:	4603      	mov	r3, r0
20000112:	b500      	push	{lr}
20000114:	6802      	ldr	r2, [r0, #0]
20000116:	f3ef 8c10 	mrs	ip, PRIMASK
2000011a:	b672      	cpsid	i
2000011c:	e8d2 efcf 	ldaexb	lr, [r2]
20000120:	2001      	movs	r0, #1
20000122:	f1be 0f00 	cmp.w	lr, #0
20000126:	d1f9      	bne.n	2000011c <mutex_try_enter+0xc>
20000128:	e8c2 0f4e 	strexb	lr, r0, [r2]
2000012c:	f1be 0f00 	cmp.w	lr, #0
20000130:	d1f4      	bne.n	2000011c <mutex_try_enter+0xc>
20000132:	f3bf 8f5f 	dmb	sy
20000136:	f993 2004 	ldrsb.w	r2, [r3, #4]
2000013a:	2a00      	cmp	r2, #0
2000013c:	db0a      	blt.n	20000154 <mutex_try_enter+0x44>
2000013e:	b179      	cbz	r1, 20000160 <mutex_try_enter+0x50>
20000140:	2000      	movs	r0, #0
20000142:	600a      	str	r2, [r1, #0]
20000144:	2200      	movs	r2, #0
20000146:	681b      	ldr	r3, [r3, #0]
20000148:	e8c3 2f8f 	stlb	r2, [r3]
2000014c:	f38c 8810 	msr	PRIMASK, ip
20000150:	f85d fb04 	ldr.w	pc, [sp], #4
20000154:	f04f 4250 	mov.w	r2, #3489660928	; 0xd0000000
20000158:	6812      	ldr	r2, [r2, #0]
2000015a:	2001      	movs	r0, #1
2000015c:	711a      	strb	r2, [r3, #4]
2000015e:	e7f1      	b.n	20000144 <mutex_try_enter+0x34>
20000160:	4608      	mov	r0, r1
20000162:	e7ef      	b.n	20000144 <mutex_try_enter+0x34>

20000164 <mutex_enter_block_until>:
20000164:	f04f 4150 	mov.w	r1, #3489660928	; 0xd0000000
20000168:	e92d 43f8 	stmdb	sp!, {r3, r4, r5, r6, r7, r8, r9, lr}
2000016c:	2700      	movs	r7, #0
2000016e:	4604      	mov	r4, r0
20000170:	4616      	mov	r6, r2
20000172:	4699      	mov	r9, r3
20000174:	f8d1 8000 	ldr.w	r8, [r1]
20000178:	e009      	b.n	2000018e <mutex_enter_block_until+0x2a>
2000017a:	6823      	ldr	r3, [r4, #0]
2000017c:	e8c3 7f8f 	stlb	r7, [r3]
20000180:	f38c 8810 	msr	PRIMASK, ip
20000184:	4630      	mov	r0, r6
20000186:	4649      	mov	r1, r9
20000188:	f000 fc26 	bl	200009d8 <__best_effort_wfe_or_timeout_veneer>
2000018c:	b9e8      	cbnz	r0, 200001ca <mutex_enter_block_until+0x66>
2000018e:	6825      	ldr	r5, [r4, #0]
20000190:	f3ef 8c10 	mrs	ip, PRIMASK
20000194:	b672      	cpsid	i
20000196:	e8d5 2fcf 	ldaexb	r2, [r5]
2000019a:	2301      	movs	r3, #1
2000019c:	2a00      	cmp	r2, #0
2000019e:	d1fa      	bne.n	20000196 <mutex_enter_block_until+0x32>
200001a0:	e8c5 3f42 	strexb	r2, r3, [r5]
200001a4:	2a00      	cmp	r2, #0
200001a6:	d1f6      	bne.n	20000196 <mutex_enter_block_until+0x32>
200001a8:	f3bf 8f5f 	dmb	sy
200001ac:	f994 5004 	ldrsb.w	r5, [r4, #4]
200001b0:	2d00      	cmp	r5, #0
200001b2:	dae2      	bge.n	2000017a <mutex_enter_block_until+0x16>
200001b4:	2300      	movs	r3, #0
200001b6:	6822      	ldr	r2, [r4, #0]
200001b8:	f884 8004 	strb.w	r8, [r4, #4]
200001bc:	e8c2 3f8f 	stlb	r3, [r2]
200001c0:	f38c 8810 	msr	PRIMASK, ip
200001c4:	2001      	movs	r0, #1
200001c6:	e8bd 83f8 	ldmia.w	sp!, {r3, r4, r5, r6, r7, r8, r9, pc}
200001ca:	2000      	movs	r0, #0
200001cc:	e8bd 83f8 	ldmia.w	sp!, {r3, r4, r5, r6, r7, r8, r9, pc}

200001d0 <mutex_try_enter_block_until>:
200001d0:	b530      	push	{r4, r5, lr}
200001d2:	4601      	mov	r1, r0
200001d4:	6804      	ldr	r4, [r0, #0]
200001d6:	f3ef 8c10 	mrs	ip, PRIMASK
200001da:	b672      	cpsid	i
200001dc:	e8d4 efcf 	ldaexb	lr, [r4]
200001e0:	2501      	movs	r5, #1
200001e2:	f1be 0f00 	cmp.w	lr, #0
200001e6:	d1f9      	bne.n	200001dc <mutex_try_enter_block_until+0xc>
200001e8:	e8c4 5f4e 	strexb	lr, r5, [r4]
200001ec:	f1be 0f00 	cmp.w	lr, #0
200001f0:	d1f4      	bne.n	200001dc <mutex_try_enter_block_until+0xc>
200001f2:	f3bf 8f5f 	dmb	sy
200001f6:	f990 4004 	ldrsb.w	r4, [r0, #4]
200001fa:	2c00      	cmp	r4, #0
200001fc:	db11      	blt.n	20000222 <mutex_try_enter_block_until+0x52>
200001fe:	2100      	movs	r1, #0
20000200:	6805      	ldr	r5, [r0, #0]
20000202:	e8c5 1f8f 	stlb	r1, [r5]
20000206:	f38c 8810 	msr	PRIMASK, ip
2000020a:	f04f 4c50 	mov.w	ip, #3489660928	; 0xd0000000
2000020e:	f99c c000 	ldrsb.w	ip, [ip]
20000212:	45a4      	cmp	ip, r4
20000214:	d101      	bne.n	2000021a <mutex_try_enter_block_until+0x4a>
20000216:	4608      	mov	r0, r1
20000218:	bd30      	pop	{r4, r5, pc}
2000021a:	e8bd 4030 	ldmia.w	sp!, {r4, r5, lr}
2000021e:	f7ff bfa1 	b.w	20000164 <mutex_enter_block_until>
20000222:	f04f 4050 	mov.w	r0, #3489660928	; 0xd0000000
20000226:	6800      	ldr	r0, [r0, #0]
20000228:	2300      	movs	r3, #0
2000022a:	680a      	ldr	r2, [r1, #0]
2000022c:	7108      	strb	r0, [r1, #4]
2000022e:	e8c2 3f8f 	stlb	r3, [r2]
20000232:	f38c 8810 	msr	PRIMASK, ip
20000236:	2001      	movs	r0, #1
20000238:	bd30      	pop	{r4, r5, pc}
2000023a:	bf00      	nop

2000023c <mutex_enter_timeout_ms>:
2000023c:	b570      	push	{r4, r5, r6, lr}
2000023e:	4605      	mov	r5, r0
20000240:	460c      	mov	r4, r1
20000242:	f000 fbc1 	bl	200009c8 <__time_us_64_veneer>
20000246:	f44f 7c7a 	mov.w	ip, #1000	; 0x3e8
2000024a:	4602      	mov	r2, r0
2000024c:	460b      	mov	r3, r1
2000024e:	fbe4 230c 	umlal	r2, r3, r4, ip
20000252:	2b00      	cmp	r3, #0
20000254:	4628      	mov	r0, r5
20000256:	e8bd 4070 	ldmia.w	sp!, {r4, r5, r6, lr}
2000025a:	bfbc      	itt	lt
2000025c:	f04f 32ff 	movlt.w	r2, #4294967295	; 0xffffffff
20000260:	f06f 4300 	mvnlt.w	r3, #2147483648	; 0x80000000
20000264:	f7ff bf7e 	b.w	20000164 <mutex_enter_block_until>

20000268 <mutex_exit>:
20000268:	6803      	ldr	r3, [r0, #0]
2000026a:	f3ef 8210 	mrs	r2, PRIMASK
2000026e:	b672      	cpsid	i
20000270:	e8d3 cfcf 	ldaexb	ip, [r3]
20000274:	2101      	movs	r1, #1
20000276:	f1bc 0f00 	cmp.w	ip, #0
2000027a:	d1f9      	bne.n	20000270 <mutex_exit+0x8>
2000027c:	e8c3 1f4c 	strexb	ip, r1, [r3]
20000280:	f1bc 0f00 	cmp.w	ip, #0
20000284:	d1f4      	bne.n	20000270 <mutex_exit+0x8>
20000286:	f3bf 8f5f 	dmb	sy
2000028a:	f04f 0cff 	mov.w	ip, #255	; 0xff
2000028e:	2300      	movs	r3, #0
20000290:	6801      	ldr	r1, [r0, #0]
20000292:	f880 c004 	strb.w	ip, [r0, #4]
20000296:	e8c1 3f8f 	stlb	r3, [r1]
2000029a:	f382 8810 	msr	PRIMASK, r2
2000029e:	bf40      	sev
200002a0:	4770      	bx	lr
200002a2:	bf00      	nop

200002a4 <reset_non_control_endpoints>:
200002a4:	2200      	movs	r2, #0
200002a6:	4611      	mov	r1, r2
200002a8:	b508      	push	{r3, lr}
200002aa:	00d3      	lsls	r3, r2, #3
200002ac:	f103 43a0 	add.w	r3, r3, #1342177280	; 0x50000000
200002b0:	3201      	adds	r2, #1
200002b2:	f503 1380 	add.w	r3, r3, #1048576	; 0x100000
200002b6:	2a0f      	cmp	r2, #15
200002b8:	6099      	str	r1, [r3, #8]
200002ba:	60d9      	str	r1, [r3, #12]
200002bc:	d1f5      	bne.n	200002aa <reset_non_control_endpoints+0x6>
200002be:	f44f 7270 	mov.w	r2, #960	; 0x3c0
200002c2:	2100      	movs	r1, #0
200002c4:	4803      	ldr	r0, [pc, #12]	; (200002d4 <reset_non_control_endpoints+0x30>)
200002c6:	f000 fb8f 	bl	200009e8 <__memset_veneer>
200002ca:	4b03      	ldr	r3, [pc, #12]	; (200002d8 <reset_non_control_endpoints+0x34>)
200002cc:	4a03      	ldr	r2, [pc, #12]	; (200002dc <reset_non_control_endpoints+0x38>)
200002ce:	601a      	str	r2, [r3, #0]
200002d0:	bd08      	pop	{r3, pc}
200002d2:	bf00      	nop
200002d4:	20001438 	.word	0x20001438
200002d8:	20001800 	.word	0x20001800
200002dc:	50100180 	.word	0x50100180

200002e0 <hw_handle_buff_status>:
200002e0:	e92d 4ff0 	stmdb	sp!, {r4, r5, r6, r7, r8, r9, sl, fp, lr}
200002e4:	4b23      	ldr	r3, [pc, #140]	; (20000374 <hw_handle_buff_status+0x94>)
200002e6:	b085      	sub	sp, #20
200002e8:	f8d3 a058 	ldr.w	sl, [r3, #88]	; 0x58
200002ec:	f1ba 0f00 	cmp.w	sl, #0
200002f0:	d025      	beq.n	2000033e <hw_handle_buff_status+0x5e>
200002f2:	2400      	movs	r4, #0
200002f4:	2501      	movs	r5, #1
200002f6:	f04f 0802 	mov.w	r8, #2
200002fa:	4f1f      	ldr	r7, [pc, #124]	; (20000378 <hw_handle_buff_status+0x98>)
200002fc:	e003      	b.n	20000306 <hw_handle_buff_status+0x26>
200002fe:	006d      	lsls	r5, r5, #1
20000300:	b2dc      	uxtb	r4, r3
20000302:	2c20      	cmp	r4, #32
20000304:	d01b      	beq.n	2000033e <hw_handle_buff_status+0x5e>
20000306:	ea1a 0f05 	tst.w	sl, r5
2000030a:	f104 0301 	add.w	r3, r4, #1
2000030e:	d0f6      	beq.n	200002fe <hw_handle_buff_status+0x1e>
20000310:	43e6      	mvns	r6, r4
20000312:	ea4f 0954 	mov.w	r9, r4, lsr #1
20000316:	f006 0601 	and.w	r6, r6, #1
2000031a:	fb18 6b09 	smlabb	fp, r8, r9, r6
2000031e:	4b17      	ldr	r3, [pc, #92]	; (2000037c <hw_handle_buff_status+0x9c>)
20000320:	eb07 1b4b 	add.w	fp, r7, fp, lsl #5
20000324:	659d      	str	r5, [r3, #88]	; 0x58
20000326:	4658      	mov	r0, fp
20000328:	ea2a 0a05 	bic.w	sl, sl, r5
2000032c:	006d      	lsls	r5, r5, #1
2000032e:	f000 fa0f 	bl	20000750 <hw_endpoint_xfer_continue>
20000332:	b938      	cbnz	r0, 20000344 <hw_handle_buff_status+0x64>
20000334:	3401      	adds	r4, #1
20000336:	b2e4      	uxtb	r4, r4
20000338:	f1ba 0f00 	cmp.w	sl, #0
2000033c:	d1e1      	bne.n	20000302 <hw_handle_buff_status+0x22>
2000033e:	b005      	add	sp, #20
20000340:	e8bd 8ff0 	ldmia.w	sp!, {r4, r5, r6, r7, r8, r9, sl, fp, pc}
20000344:	2300      	movs	r3, #0
20000346:	2207      	movs	r2, #7
20000348:	eb06 0649 	add.w	r6, r6, r9, lsl #1
2000034c:	eb07 1646 	add.w	r6, r7, r6, lsl #5
20000350:	8af1      	ldrh	r1, [r6, #22]
20000352:	f896 c002 	ldrb.w	ip, [r6, #2]
20000356:	9103      	str	r1, [sp, #12]
20000358:	a801      	add	r0, sp, #4
2000035a:	2101      	movs	r1, #1
2000035c:	e9cd 3301 	strd	r3, r3, [sp, #4]
20000360:	f88d c008 	strb.w	ip, [sp, #8]
20000364:	f88d 2005 	strb.w	r2, [sp, #5]
20000368:	f000 fa12 	bl	20000790 <dcd_event_handler>
2000036c:	4658      	mov	r0, fp
2000036e:	f000 f995 	bl	2000069c <hw_endpoint_reset_transfer>
20000372:	e7df      	b.n	20000334 <hw_handle_buff_status+0x54>
20000374:	50110000 	.word	0x50110000
20000378:	200013f8 	.word	0x200013f8
2000037c:	50113000 	.word	0x50113000

20000380 <dcd_rp2040_irq>:
20000380:	e92d 41f0 	stmdb	sp!, {r4, r5, r6, r7, r8, lr}
20000384:	4b6d      	ldr	r3, [pc, #436]	; (2000053c <dcd_rp2040_irq+0x1bc>)
20000386:	b084      	sub	sp, #16
20000388:	f8d3 5098 	ldr.w	r5, [r3, #152]	; 0x98
2000038c:	f415 3400 	ands.w	r4, r5, #131072	; 0x20000
20000390:	d033      	beq.n	200003fa <dcd_rp2040_irq+0x7a>
20000392:	2200      	movs	r2, #0
20000394:	496a      	ldr	r1, [pc, #424]	; (20000540 <dcd_rp2040_irq+0x1c0>)
20000396:	4b6b      	ldr	r3, [pc, #428]	; (20000544 <dcd_rp2040_irq+0x1c4>)
20000398:	6a89      	ldr	r1, [r1, #40]	; 0x28
2000039a:	4c6b      	ldr	r4, [pc, #428]	; (20000548 <dcd_rp2040_irq+0x1c8>)
2000039c:	4690      	mov	r8, r2
2000039e:	6019      	str	r1, [r3, #0]
200003a0:	f504 6680 	add.w	r6, r4, #1024	; 0x400
200003a4:	e002      	b.n	200003ac <dcd_rp2040_irq+0x2c>
200003a6:	3440      	adds	r4, #64	; 0x40
200003a8:	42a6      	cmp	r6, r4
200003aa:	d00c      	beq.n	200003c6 <dcd_rp2040_irq+0x46>
200003ac:	7ee3      	ldrb	r3, [r4, #27]
200003ae:	2b02      	cmp	r3, #2
200003b0:	d1f9      	bne.n	200003a6 <dcd_rp2040_irq+0x26>
200003b2:	7ea7      	ldrb	r7, [r4, #26]
200003b4:	2f00      	cmp	r7, #0
200003b6:	d0f6      	beq.n	200003a6 <dcd_rp2040_irq+0x26>
200003b8:	7f23      	ldrb	r3, [r4, #28]
200003ba:	2b00      	cmp	r3, #0
200003bc:	d173      	bne.n	200004a6 <dcd_rp2040_irq+0x126>
200003be:	3440      	adds	r4, #64	; 0x40
200003c0:	42a6      	cmp	r6, r4
200003c2:	463a      	mov	r2, r7
200003c4:	d1f2      	bne.n	200003ac <dcd_rp2040_irq+0x2c>
200003c6:	b93a      	cbnz	r2, 200003d8 <dcd_rp2040_irq+0x58>
200003c8:	4b60      	ldr	r3, [pc, #384]	; (2000054c <dcd_rp2040_irq+0x1cc>)
200003ca:	781b      	ldrb	r3, [r3, #0]
200003cc:	b923      	cbnz	r3, 200003d8 <dcd_rp2040_irq+0x58>
200003ce:	f44f 3200 	mov.w	r2, #131072	; 0x20000
200003d2:	4b5f      	ldr	r3, [pc, #380]	; (20000550 <dcd_rp2040_irq+0x1d0>)
200003d4:	f8c3 2090 	str.w	r2, [r3, #144]	; 0x90
200003d8:	2200      	movs	r2, #0
200003da:	2603      	movs	r6, #3
200003dc:	4b57      	ldr	r3, [pc, #348]	; (2000053c <dcd_rp2040_irq+0x1bc>)
200003de:	2101      	movs	r1, #1
200003e0:	6c9b      	ldr	r3, [r3, #72]	; 0x48
200003e2:	a801      	add	r0, sp, #4
200003e4:	f3c3 030a 	ubfx	r3, r3, #0, #11
200003e8:	9201      	str	r2, [sp, #4]
200003ea:	f44f 3400 	mov.w	r4, #131072	; 0x20000
200003ee:	9302      	str	r3, [sp, #8]
200003f0:	9203      	str	r2, [sp, #12]
200003f2:	f88d 6005 	strb.w	r6, [sp, #5]
200003f6:	f000 f9cb 	bl	20000790 <dcd_event_handler>
200003fa:	06ea      	lsls	r2, r5, #27
200003fc:	d45a      	bmi.n	200004b4 <dcd_rp2040_irq+0x134>
200003fe:	03eb      	lsls	r3, r5, #15
20000400:	d531      	bpl.n	20000466 <dcd_rp2040_irq+0xe6>
20000402:	4e54      	ldr	r6, [pc, #336]	; (20000554 <dcd_rp2040_irq+0x1d4>)
20000404:	f444 3480 	orr.w	r4, r4, #65536	; 0x10000
20000408:	7eb3      	ldrb	r3, [r6, #26]
2000040a:	b19b      	cbz	r3, 20000434 <dcd_rp2040_irq+0xb4>
2000040c:	2102      	movs	r1, #2
2000040e:	4b52      	ldr	r3, [pc, #328]	; (20000558 <dcd_rp2040_irq+0x1d8>)
20000410:	4a4a      	ldr	r2, [pc, #296]	; (2000053c <dcd_rp2040_irq+0x1bc>)
20000412:	6619      	str	r1, [r3, #96]	; 0x60
20000414:	6e53      	ldr	r3, [r2, #100]	; 0x64
20000416:	079f      	lsls	r7, r3, #30
20000418:	d5fc      	bpl.n	20000414 <dcd_rp2040_irq+0x94>
2000041a:	f44f 5240 	mov.w	r2, #12288	; 0x3000
2000041e:	2100      	movs	r1, #0
20000420:	484c      	ldr	r0, [pc, #304]	; (20000554 <dcd_rp2040_irq+0x1d4>)
20000422:	f000 f941 	bl	200006a8 <_hw_endpoint_buffer_control_update32>
20000426:	484b      	ldr	r0, [pc, #300]	; (20000554 <dcd_rp2040_irq+0x1d4>)
20000428:	f000 f938 	bl	2000069c <hw_endpoint_reset_transfer>
2000042c:	2202      	movs	r2, #2
2000042e:	4b48      	ldr	r3, [pc, #288]	; (20000550 <dcd_rp2040_irq+0x1d0>)
20000430:	665a      	str	r2, [r3, #100]	; 0x64
20000432:	661a      	str	r2, [r3, #96]	; 0x60
20000434:	2301      	movs	r3, #1
20000436:	f896 203a 	ldrb.w	r2, [r6, #58]	; 0x3a
2000043a:	70f3      	strb	r3, [r6, #3]
2000043c:	b9f2      	cbnz	r2, 2000047c <dcd_rp2040_irq+0xfc>
2000043e:	2301      	movs	r3, #1
20000440:	f44f 61c0 	mov.w	r1, #1536	; 0x600
20000444:	4a45      	ldr	r2, [pc, #276]	; (2000055c <dcd_rp2040_irq+0x1dc>)
20000446:	9101      	str	r1, [sp, #4]
20000448:	f886 3023 	strb.w	r3, [r6, #35]	; 0x23
2000044c:	e892 0003 	ldmia.w	r2, {r0, r1}
20000450:	aa04      	add	r2, sp, #16
20000452:	e902 0003 	stmdb	r2, {r0, r1}
20000456:	4619      	mov	r1, r3
20000458:	a801      	add	r0, sp, #4
2000045a:	f000 f999 	bl	20000790 <dcd_event_handler>
2000045e:	f44f 3200 	mov.w	r2, #131072	; 0x20000
20000462:	4b3b      	ldr	r3, [pc, #236]	; (20000550 <dcd_rp2040_irq+0x1d0>)
20000464:	651a      	str	r2, [r3, #80]	; 0x50
20000466:	04e9      	lsls	r1, r5, #19
20000468:	d44d      	bmi.n	20000506 <dcd_rp2040_irq+0x186>
2000046a:	046a      	lsls	r2, r5, #17
2000046c:	d439      	bmi.n	200004e2 <dcd_rp2040_irq+0x162>
2000046e:	042b      	lsls	r3, r5, #16
20000470:	d425      	bmi.n	200004be <dcd_rp2040_irq+0x13e>
20000472:	42ac      	cmp	r4, r5
20000474:	d15c      	bne.n	20000530 <dcd_rp2040_irq+0x1b0>
20000476:	b004      	add	sp, #16
20000478:	e8bd 81f0 	ldmia.w	sp!, {r4, r5, r6, r7, r8, pc}
2000047c:	4a36      	ldr	r2, [pc, #216]	; (20000558 <dcd_rp2040_irq+0x1d8>)
2000047e:	6613      	str	r3, [r2, #96]	; 0x60
20000480:	f5a2 5200 	sub.w	r2, r2, #8192	; 0x2000
20000484:	6e53      	ldr	r3, [r2, #100]	; 0x64
20000486:	07d8      	lsls	r0, r3, #31
20000488:	d5fc      	bpl.n	20000484 <dcd_rp2040_irq+0x104>
2000048a:	f44f 5240 	mov.w	r2, #12288	; 0x3000
2000048e:	2100      	movs	r1, #0
20000490:	482d      	ldr	r0, [pc, #180]	; (20000548 <dcd_rp2040_irq+0x1c8>)
20000492:	f000 f909 	bl	200006a8 <_hw_endpoint_buffer_control_update32>
20000496:	482c      	ldr	r0, [pc, #176]	; (20000548 <dcd_rp2040_irq+0x1c8>)
20000498:	f000 f900 	bl	2000069c <hw_endpoint_reset_transfer>
2000049c:	2201      	movs	r2, #1
2000049e:	4b2c      	ldr	r3, [pc, #176]	; (20000550 <dcd_rp2040_irq+0x1d0>)
200004a0:	665a      	str	r2, [r3, #100]	; 0x64
200004a2:	661a      	str	r2, [r3, #96]	; 0x60
200004a4:	e7cb      	b.n	2000043e <dcd_rp2040_irq+0xbe>
200004a6:	4620      	mov	r0, r4
200004a8:	f884 801c 	strb.w	r8, [r4, #28]
200004ac:	f000 f91e 	bl	200006ec <hw_endpoint_start_next_buffer>
200004b0:	463a      	mov	r2, r7
200004b2:	e778      	b.n	200003a6 <dcd_rp2040_irq+0x26>
200004b4:	f044 0410 	orr.w	r4, r4, #16
200004b8:	f7ff ff12 	bl	200002e0 <hw_handle_buff_status>
200004bc:	e79f      	b.n	200003fe <dcd_rp2040_irq+0x7e>
200004be:	2300      	movs	r3, #0
200004c0:	2205      	movs	r2, #5
200004c2:	2101      	movs	r1, #1
200004c4:	a801      	add	r0, sp, #4
200004c6:	e9cd 3301 	strd	r3, r3, [sp, #4]
200004ca:	9303      	str	r3, [sp, #12]
200004cc:	f88d 2005 	strb.w	r2, [sp, #5]
200004d0:	f000 f95e 	bl	20000790 <dcd_event_handler>
200004d4:	f44f 6200 	mov.w	r2, #2048	; 0x800
200004d8:	4b1d      	ldr	r3, [pc, #116]	; (20000550 <dcd_rp2040_irq+0x1d0>)
200004da:	f444 4400 	orr.w	r4, r4, #32768	; 0x8000
200004de:	651a      	str	r2, [r3, #80]	; 0x50
200004e0:	e7c7      	b.n	20000472 <dcd_rp2040_irq+0xf2>
200004e2:	2204      	movs	r2, #4
200004e4:	2300      	movs	r3, #0
200004e6:	eb0d 0002 	add.w	r0, sp, r2
200004ea:	2101      	movs	r1, #1
200004ec:	e9cd 3301 	strd	r3, r3, [sp, #4]
200004f0:	9303      	str	r3, [sp, #12]
200004f2:	f88d 2005 	strb.w	r2, [sp, #5]
200004f6:	f000 f94b 	bl	20000790 <dcd_event_handler>
200004fa:	2210      	movs	r2, #16
200004fc:	4b14      	ldr	r3, [pc, #80]	; (20000550 <dcd_rp2040_irq+0x1d0>)
200004fe:	f444 4480 	orr.w	r4, r4, #16384	; 0x4000
20000502:	651a      	str	r2, [r3, #80]	; 0x50
20000504:	e7b3      	b.n	2000046e <dcd_rp2040_irq+0xee>
20000506:	2600      	movs	r6, #0
20000508:	4b0c      	ldr	r3, [pc, #48]	; (2000053c <dcd_rp2040_irq+0x1bc>)
2000050a:	f444 5480 	orr.w	r4, r4, #4096	; 0x1000
2000050e:	601e      	str	r6, [r3, #0]
20000510:	f7ff fec8 	bl	200002a4 <reset_non_control_endpoints>
20000514:	2101      	movs	r1, #1
20000516:	a801      	add	r0, sp, #4
20000518:	9601      	str	r6, [sp, #4]
2000051a:	9602      	str	r6, [sp, #8]
2000051c:	f88d 1005 	strb.w	r1, [sp, #5]
20000520:	9603      	str	r6, [sp, #12]
20000522:	f000 f935 	bl	20000790 <dcd_event_handler>
20000526:	f44f 2200 	mov.w	r2, #524288	; 0x80000
2000052a:	4b09      	ldr	r3, [pc, #36]	; (20000550 <dcd_rp2040_irq+0x1d0>)
2000052c:	651a      	str	r2, [r3, #80]	; 0x50
2000052e:	e79c      	b.n	2000046a <dcd_rp2040_irq+0xea>
20000530:	480b      	ldr	r0, [pc, #44]	; (20000560 <dcd_rp2040_irq+0x1e0>)
20000532:	ea84 0105 	eor.w	r1, r4, r5
20000536:	f000 fa3f 	bl	200009b8 <__panic_veneer>
2000053a:	bf00      	nop
2000053c:	50110000 	.word	0x50110000
20000540:	400b0000 	.word	0x400b0000
20000544:	200013f0 	.word	0x200013f0
20000548:	20001418 	.word	0x20001418
2000054c:	20001852 	.word	0x20001852
20000550:	50113000 	.word	0x50113000
20000554:	200013f8 	.word	0x200013f8
20000558:	50112000 	.word	0x50112000
2000055c:	50100000 	.word	0x50100000
20000560:	10004798 	.word	0x10004798

20000564 <prepare_ep_buffer>:
20000564:	b530      	push	{r4, r5, lr}
20000566:	8b03      	ldrh	r3, [r0, #24]
20000568:	8a84      	ldrh	r4, [r0, #20]
2000056a:	42a3      	cmp	r3, r4
2000056c:	bf28      	it	cs
2000056e:	4623      	movcs	r3, r4
20000570:	461d      	mov	r5, r3
20000572:	78c3      	ldrb	r3, [r0, #3]
20000574:	1b64      	subs	r4, r4, r5
20000576:	b2a4      	uxth	r4, r4
20000578:	8284      	strh	r4, [r0, #20]
2000057a:	b323      	cbz	r3, 200005c6 <prepare_ep_buffer+0x62>
2000057c:	f445 5e10 	orr.w	lr, r5, #9216	; 0x2400
20000580:	7842      	ldrb	r2, [r0, #1]
20000582:	f083 0301 	eor.w	r3, r3, #1
20000586:	70c3      	strb	r3, [r0, #3]
20000588:	4673      	mov	r3, lr
2000058a:	b9aa      	cbnz	r2, 200005b8 <prepare_ep_buffer+0x54>
2000058c:	e9d0 2303 	ldrd	r2, r3, [r0, #12]
20000590:	ea4f 1c81 	mov.w	ip, r1, lsl #6
20000594:	b165      	cbz	r5, 200005b0 <prepare_ep_buffer+0x4c>
20000596:	f10c 3cff 	add.w	ip, ip, #4294967295	; 0xffffffff
2000059a:	4462      	add	r2, ip
2000059c:	eb03 0c05 	add.w	ip, r3, r5
200005a0:	f813 4b01 	ldrb.w	r4, [r3], #1
200005a4:	4563      	cmp	r3, ip
200005a6:	f802 4f01 	strb.w	r4, [r2, #1]!
200005aa:	d1f9      	bne.n	200005a0 <prepare_ep_buffer+0x3c>
200005ac:	6903      	ldr	r3, [r0, #16]
200005ae:	8a84      	ldrh	r4, [r0, #20]
200005b0:	442b      	add	r3, r5
200005b2:	6103      	str	r3, [r0, #16]
200005b4:	f44e 4300 	orr.w	r3, lr, #32768	; 0x8000
200005b8:	b90c      	cbnz	r4, 200005be <prepare_ep_buffer+0x5a>
200005ba:	f443 4380 	orr.w	r3, r3, #16384	; 0x4000
200005be:	b101      	cbz	r1, 200005c2 <prepare_ep_buffer+0x5e>
200005c0:	041b      	lsls	r3, r3, #16
200005c2:	4618      	mov	r0, r3
200005c4:	bd30      	pop	{r4, r5, pc}
200005c6:	f445 6e80 	orr.w	lr, r5, #1024	; 0x400
200005ca:	e7d9      	b.n	20000580 <prepare_ep_buffer+0x1c>

200005cc <sync_ep_buffer>:
200005cc:	6883      	ldr	r3, [r0, #8]
200005ce:	b410      	push	{r4}
200005d0:	681c      	ldr	r4, [r3, #0]
200005d2:	b101      	cbz	r1, 200005d6 <sync_ep_buffer+0xa>
200005d4:	0c24      	lsrs	r4, r4, #16
200005d6:	7843      	ldrb	r3, [r0, #1]
200005d8:	f3c4 0409 	ubfx	r4, r4, #0, #10
200005dc:	b95b      	cbnz	r3, 200005f6 <sync_ep_buffer+0x2a>
200005de:	8ac3      	ldrh	r3, [r0, #22]
200005e0:	4423      	add	r3, r4
200005e2:	82c3      	strh	r3, [r0, #22]
200005e4:	8b03      	ldrh	r3, [r0, #24]
200005e6:	42a3      	cmp	r3, r4
200005e8:	bf84      	itt	hi
200005ea:	2300      	movhi	r3, #0
200005ec:	8283      	strhhi	r3, [r0, #20]
200005ee:	4620      	mov	r0, r4
200005f0:	f85d 4b04 	ldr.w	r4, [sp], #4
200005f4:	4770      	bx	lr
200005f6:	e9d0 2303 	ldrd	r2, r3, [r0, #12]
200005fa:	eb02 1181 	add.w	r1, r2, r1, lsl #6
200005fe:	b14c      	cbz	r4, 20000614 <sync_ep_buffer+0x48>
20000600:	3b01      	subs	r3, #1
20000602:	eb01 0c04 	add.w	ip, r1, r4
20000606:	f811 2b01 	ldrb.w	r2, [r1], #1
2000060a:	4561      	cmp	r1, ip
2000060c:	f803 2f01 	strb.w	r2, [r3, #1]!
20000610:	d1f9      	bne.n	20000606 <sync_ep_buffer+0x3a>
20000612:	6903      	ldr	r3, [r0, #16]
20000614:	8ac1      	ldrh	r1, [r0, #22]
20000616:	4423      	add	r3, r4
20000618:	1862      	adds	r2, r4, r1
2000061a:	82c2      	strh	r2, [r0, #22]
2000061c:	6103      	str	r3, [r0, #16]
2000061e:	e7e1      	b.n	200005e4 <sync_ep_buffer+0x18>

20000620 <_hw_endpoint_xfer_sync>:
20000620:	b510      	push	{r4, lr}
20000622:	4604      	mov	r4, r0
20000624:	6883      	ldr	r3, [r0, #8]
20000626:	2100      	movs	r1, #0
20000628:	681b      	ldr	r3, [r3, #0]
2000062a:	f7ff ffcf 	bl	200005cc <sync_ep_buffer>
2000062e:	6863      	ldr	r3, [r4, #4]
20000630:	681b      	ldr	r3, [r3, #0]
20000632:	005b      	lsls	r3, r3, #1
20000634:	d502      	bpl.n	2000063c <_hw_endpoint_xfer_sync+0x1c>
20000636:	8b23      	ldrh	r3, [r4, #24]
20000638:	4283      	cmp	r3, r0
2000063a:	d000      	beq.n	2000063e <_hw_endpoint_xfer_sync+0x1e>
2000063c:	bd10      	pop	{r4, pc}
2000063e:	4620      	mov	r0, r4
20000640:	e8bd 4010 	ldmia.w	sp!, {r4, lr}
20000644:	2101      	movs	r1, #1
20000646:	f7ff bfc1 	b.w	200005cc <sync_ep_buffer>
2000064a:	bf00      	nop

2000064c <e15_is_bulkin_ep>:
2000064c:	4b08      	ldr	r3, [pc, #32]	; (20000670 <e15_is_bulkin_ep+0x24>)
2000064e:	6c1b      	ldr	r3, [r3, #64]	; 0x40
20000650:	f013 0302 	ands.w	r3, r3, #2
20000654:	d102      	bne.n	2000065c <e15_is_bulkin_ep+0x10>
20000656:	7882      	ldrb	r2, [r0, #2]
20000658:	09d2      	lsrs	r2, r2, #7
2000065a:	d101      	bne.n	20000660 <e15_is_bulkin_ep+0x14>
2000065c:	2000      	movs	r0, #0
2000065e:	4770      	bx	lr
20000660:	7ec0      	ldrb	r0, [r0, #27]
20000662:	f1a0 0002 	sub.w	r0, r0, #2
20000666:	fab0 f080 	clz	r0, r0
2000066a:	0940      	lsrs	r0, r0, #5
2000066c:	4770      	bx	lr
2000066e:	bf00      	nop
20000670:	50110000 	.word	0x50110000

20000674 <e15_is_critical_frame_period>:
20000674:	b508      	push	{r3, lr}
20000676:	f7ff ffe9 	bl	2000064c <e15_is_bulkin_ep>
2000067a:	b150      	cbz	r0, 20000692 <e15_is_critical_frame_period+0x1e>
2000067c:	4a05      	ldr	r2, [pc, #20]	; (20000694 <e15_is_critical_frame_period+0x20>)
2000067e:	4b06      	ldr	r3, [pc, #24]	; (20000698 <e15_is_critical_frame_period+0x24>)
20000680:	6a90      	ldr	r0, [r2, #40]	; 0x28
20000682:	681b      	ldr	r3, [r3, #0]
20000684:	f5a0 7048 	sub.w	r0, r0, #800	; 0x320
20000688:	1ac0      	subs	r0, r0, r3
2000068a:	28c6      	cmp	r0, #198	; 0xc6
2000068c:	bf8c      	ite	hi
2000068e:	2000      	movhi	r0, #0
20000690:	2001      	movls	r0, #1
20000692:	bd08      	pop	{r3, pc}
20000694:	400b0000 	.word	0x400b0000
20000698:	200013f0 	.word	0x200013f0

2000069c <hw_endpoint_reset_transfer>:
2000069c:	2300      	movs	r3, #0
2000069e:	e9c0 3304 	strd	r3, r3, [r0, #16]
200006a2:	7683      	strb	r3, [r0, #26]
200006a4:	4770      	bx	lr
200006a6:	bf00      	nop

200006a8 <_hw_endpoint_buffer_control_update32>:
200006a8:	b510      	push	{r4, lr}
200006aa:	6883      	ldr	r3, [r0, #8]
200006ac:	b109      	cbz	r1, 200006b2 <_hw_endpoint_buffer_control_update32+0xa>
200006ae:	681c      	ldr	r4, [r3, #0]
200006b0:	4021      	ands	r1, r4
200006b2:	b182      	cbz	r2, 200006d6 <_hw_endpoint_buffer_control_update32+0x2e>
200006b4:	4311      	orrs	r1, r2
200006b6:	0552      	lsls	r2, r2, #21
200006b8:	d50d      	bpl.n	200006d6 <_hw_endpoint_buffer_control_update32+0x2e>
200006ba:	681a      	ldr	r2, [r3, #0]
200006bc:	0554      	lsls	r4, r2, #21
200006be:	d40c      	bmi.n	200006da <_hw_endpoint_buffer_control_update32+0x32>
200006c0:	4a08      	ldr	r2, [pc, #32]	; (200006e4 <_hw_endpoint_buffer_control_update32+0x3c>)
200006c2:	f421 6480 	bic.w	r4, r1, #1024	; 0x400
200006c6:	601c      	str	r4, [r3, #0]
200006c8:	6c12      	ldr	r2, [r2, #64]	; 0x40
200006ca:	0792      	lsls	r2, r2, #30
200006cc:	d403      	bmi.n	200006d6 <_hw_endpoint_buffer_control_update32+0x2e>
200006ce:	230c      	movs	r3, #12
200006d0:	3b03      	subs	r3, #3
200006d2:	d2fd      	bcs.n	200006d0 <_hw_endpoint_buffer_control_update32+0x28>
200006d4:	6883      	ldr	r3, [r0, #8]
200006d6:	6019      	str	r1, [r3, #0]
200006d8:	bd10      	pop	{r4, pc}
200006da:	7881      	ldrb	r1, [r0, #2]
200006dc:	4802      	ldr	r0, [pc, #8]	; (200006e8 <_hw_endpoint_buffer_control_update32+0x40>)
200006de:	f000 f96b 	bl	200009b8 <__panic_veneer>
200006e2:	bf00      	nop
200006e4:	50110000 	.word	0x50110000
200006e8:	100047ac 	.word	0x100047ac

200006ec <hw_endpoint_start_next_buffer>:
200006ec:	b530      	push	{r4, r5, lr}
200006ee:	6843      	ldr	r3, [r0, #4]
200006f0:	2100      	movs	r1, #0
200006f2:	b083      	sub	sp, #12
200006f4:	4604      	mov	r4, r0
200006f6:	681d      	ldr	r5, [r3, #0]
200006f8:	f7ff ff34 	bl	20000564 <prepare_ep_buffer>
200006fc:	4b13      	ldr	r3, [pc, #76]	; (2000074c <hw_endpoint_start_next_buffer+0x60>)
200006fe:	f440 5280 	orr.w	r2, r0, #4096	; 0x1000
20000702:	6c1b      	ldr	r3, [r3, #64]	; 0x40
20000704:	f013 0f02 	tst.w	r3, #2
20000708:	78a3      	ldrb	r3, [r4, #2]
2000070a:	d00e      	beq.n	2000072a <hw_endpoint_start_next_buffer+0x3e>
2000070c:	065b      	lsls	r3, r3, #25
2000070e:	d00e      	beq.n	2000072e <hw_endpoint_start_next_buffer+0x42>
20000710:	f025 45a0 	bic.w	r5, r5, #1342177280	; 0x50000000
20000714:	f045 5500 	orr.w	r5, r5, #536870912	; 0x20000000
20000718:	2100      	movs	r1, #0
2000071a:	4620      	mov	r0, r4
2000071c:	6863      	ldr	r3, [r4, #4]
2000071e:	601d      	str	r5, [r3, #0]
20000720:	b003      	add	sp, #12
20000722:	e8bd 4030 	ldmia.w	sp!, {r4, r5, lr}
20000726:	f7ff bfbf 	b.w	200006a8 <_hw_endpoint_buffer_control_update32>
2000072a:	09db      	lsrs	r3, r3, #7
2000072c:	d0f0      	beq.n	20000710 <hw_endpoint_start_next_buffer+0x24>
2000072e:	8aa3      	ldrh	r3, [r4, #20]
20000730:	2b00      	cmp	r3, #0
20000732:	d0ed      	beq.n	20000710 <hw_endpoint_start_next_buffer+0x24>
20000734:	2101      	movs	r1, #1
20000736:	4620      	mov	r0, r4
20000738:	9201      	str	r2, [sp, #4]
2000073a:	f7ff ff13 	bl	20000564 <prepare_ep_buffer>
2000073e:	9a01      	ldr	r2, [sp, #4]
20000740:	f025 5500 	bic.w	r5, r5, #536870912	; 0x20000000
20000744:	f045 45a0 	orr.w	r5, r5, #1342177280	; 0x50000000
20000748:	4302      	orrs	r2, r0
2000074a:	e7e5      	b.n	20000718 <hw_endpoint_start_next_buffer+0x2c>
2000074c:	50110000 	.word	0x50110000

20000750 <hw_endpoint_xfer_continue>:
20000750:	b538      	push	{r3, r4, r5, lr}
20000752:	7e85      	ldrb	r5, [r0, #26]
20000754:	4604      	mov	r4, r0
20000756:	b1a5      	cbz	r5, 20000782 <hw_endpoint_xfer_continue+0x32>
20000758:	f7ff ff62 	bl	20000620 <_hw_endpoint_xfer_sync>
2000075c:	8aa3      	ldrh	r3, [r4, #20]
2000075e:	b90b      	cbnz	r3, 20000764 <hw_endpoint_xfer_continue+0x14>
20000760:	4628      	mov	r0, r5
20000762:	bd38      	pop	{r3, r4, r5, pc}
20000764:	4620      	mov	r0, r4
20000766:	f7ff ff85 	bl	20000674 <e15_is_critical_frame_period>
2000076a:	4605      	mov	r5, r0
2000076c:	b120      	cbz	r0, 20000778 <hw_endpoint_xfer_continue+0x28>
2000076e:	2301      	movs	r3, #1
20000770:	2500      	movs	r5, #0
20000772:	7723      	strb	r3, [r4, #28]
20000774:	4628      	mov	r0, r5
20000776:	bd38      	pop	{r3, r4, r5, pc}
20000778:	4620      	mov	r0, r4
2000077a:	f7ff ffb7 	bl	200006ec <hw_endpoint_start_next_buffer>
2000077e:	4628      	mov	r0, r5
20000780:	bd38      	pop	{r3, r4, r5, pc}
20000782:	7881      	ldrb	r1, [r0, #2]
20000784:	4801      	ldr	r0, [pc, #4]	; (2000078c <hw_endpoint_xfer_continue+0x3c>)
20000786:	f000 f917 	bl	200009b8 <__panic_veneer>
2000078a:	bf00      	nop
2000078c:	100047cc 	.word	0x100047cc

20000790 <dcd_event_handler>:
20000790:	e92d 43f0 	stmdb	sp!, {r4, r5, r6, r7, r8, r9, lr}
20000794:	7843      	ldrb	r3, [r0, #1]
20000796:	4605      	mov	r5, r0
20000798:	3b02      	subs	r3, #2
2000079a:	460e      	mov	r6, r1
2000079c:	b085      	sub	sp, #20
2000079e:	2b04      	cmp	r3, #4
200007a0:	d813      	bhi.n	200007ca <dcd_event_handler+0x3a>
200007a2:	e8df f003 	tbb	[pc, r3]
200007a6:	4803      	.short	0x4803
200007a8:	746b      	.short	0x746b
200007aa:	42          	.byte	0x42
200007ab:	00          	.byte	0x00
200007ac:	2100      	movs	r1, #0
200007ae:	4b77      	ldr	r3, [pc, #476]	; (2000098c <dcd_event_handler+0x1fc>)
200007b0:	781a      	ldrb	r2, [r3, #0]
200007b2:	f36f 0200 	bfc	r2, #0, #1
200007b6:	701a      	strb	r2, [r3, #0]
200007b8:	781a      	ldrb	r2, [r3, #0]
200007ba:	f36f 0241 	bfc	r2, #1, #1
200007be:	701a      	strb	r2, [r3, #0]
200007c0:	7059      	strb	r1, [r3, #1]
200007c2:	781a      	ldrb	r2, [r3, #0]
200007c4:	f361 0282 	bfi	r2, r1, #2, #1
200007c8:	701a      	strb	r2, [r3, #0]
200007ca:	4b71      	ldr	r3, [pc, #452]	; (20000990 <dcd_event_handler+0x200>)
200007cc:	681c      	ldr	r4, [r3, #0]
200007ce:	6963      	ldr	r3, [r4, #20]
200007d0:	f3ef 8210 	mrs	r2, PRIMASK
200007d4:	b672      	cpsid	i
200007d6:	e8d3 0fcf 	ldaexb	r0, [r3]
200007da:	2101      	movs	r1, #1
200007dc:	2800      	cmp	r0, #0
200007de:	d1fa      	bne.n	200007d6 <dcd_event_handler+0x46>
200007e0:	e8c3 1f40 	strexb	r0, r1, [r3]
200007e4:	2800      	cmp	r0, #0
200007e6:	d1f6      	bne.n	200007d6 <dcd_event_handler+0x46>
200007e8:	f3bf 8f5f 	dmb	sy
200007ec:	61a2      	str	r2, [r4, #24]
200007ee:	4629      	mov	r1, r5
200007f0:	4620      	mov	r0, r4
200007f2:	f000 f901 	bl	200009f8 <__tu_fifo_write_veneer>
200007f6:	2300      	movs	r3, #0
200007f8:	6962      	ldr	r2, [r4, #20]
200007fa:	e8c2 3f8f 	stlb	r3, [r2]
200007fe:	69a3      	ldr	r3, [r4, #24]
20000800:	f383 8810 	msr	PRIMASK, r3
20000804:	b948      	cbnz	r0, 2000081a <dcd_event_handler+0x8a>
20000806:	f04f 23e0 	mov.w	r3, #3758153728	; 0xe000e000
2000080a:	f8d3 3df0 	ldr.w	r3, [r3, #3568]	; 0xdf0
2000080e:	07db      	lsls	r3, r3, #31
20000810:	d508      	bpl.n	20000824 <dcd_event_handler+0x94>
20000812:	be00      	bkpt	0x0000
20000814:	b005      	add	sp, #20
20000816:	e8bd 83f0 	ldmia.w	sp!, {r4, r5, r6, r7, r8, r9, pc}
2000081a:	4632      	mov	r2, r6
2000081c:	7869      	ldrb	r1, [r5, #1]
2000081e:	7828      	ldrb	r0, [r5, #0]
20000820:	f000 f8c2 	bl	200009a8 <__tud_event_hook_cb_veneer>
20000824:	b005      	add	sp, #20
20000826:	e8bd 83f0 	ldmia.w	sp!, {r4, r5, r6, r7, r8, r9, pc}
2000082a:	4a5a      	ldr	r2, [pc, #360]	; (20000994 <dcd_event_handler+0x204>)
2000082c:	7813      	ldrb	r3, [r2, #0]
2000082e:	3301      	adds	r3, #1
20000830:	b2db      	uxtb	r3, r3
20000832:	7013      	strb	r3, [r2, #0]
20000834:	e7c9      	b.n	200007ca <dcd_event_handler+0x3a>
20000836:	2400      	movs	r4, #0
20000838:	f8df 8160 	ldr.w	r8, [pc, #352]	; 2000099c <dcd_event_handler+0x20c>
2000083c:	4623      	mov	r3, r4
2000083e:	f898 2000 	ldrb.w	r2, [r8]
20000842:	4f55      	ldr	r7, [pc, #340]	; (20000998 <dcd_event_handler+0x208>)
20000844:	f8df 9158 	ldr.w	r9, [pc, #344]	; 200009a0 <dcd_event_handler+0x210>
20000848:	e00c      	b.n	20000864 <dcd_event_handler+0xd4>
2000084a:	f8d9 3000 	ldr.w	r3, [r9]
2000084e:	eb13 1344 	adds.w	r3, r3, r4, lsl #5
20000852:	d10c      	bne.n	2000086e <dcd_event_handler+0xde>
20000854:	f898 2000 	ldrb.w	r2, [r8]
20000858:	3401      	adds	r4, #1
2000085a:	b2e4      	uxtb	r4, r4
2000085c:	1c51      	adds	r1, r2, #1
2000085e:	42a1      	cmp	r1, r4
20000860:	4623      	mov	r3, r4
20000862:	db1d      	blt.n	200008a0 <dcd_event_handler+0x110>
20000864:	4294      	cmp	r4, r2
20000866:	d3f0      	bcc.n	2000084a <dcd_event_handler+0xba>
20000868:	1a9b      	subs	r3, r3, r2
2000086a:	eb07 1343 	add.w	r3, r7, r3, lsl #5
2000086e:	69db      	ldr	r3, [r3, #28]
20000870:	2b00      	cmp	r3, #0
20000872:	d0ef      	beq.n	20000854 <dcd_event_handler+0xc4>
20000874:	6869      	ldr	r1, [r5, #4]
20000876:	7828      	ldrb	r0, [r5, #0]
20000878:	4798      	blx	r3
2000087a:	e7eb      	b.n	20000854 <dcd_event_handler+0xc4>
2000087c:	4b43      	ldr	r3, [pc, #268]	; (2000098c <dcd_event_handler+0x1fc>)
2000087e:	781a      	ldrb	r2, [r3, #0]
20000880:	07d7      	lsls	r7, r2, #31
20000882:	d5cf      	bpl.n	20000824 <dcd_event_handler+0x94>
20000884:	781a      	ldrb	r2, [r3, #0]
20000886:	f042 0204 	orr.w	r2, r2, #4
2000088a:	701a      	strb	r2, [r3, #0]
2000088c:	e79d      	b.n	200007ca <dcd_event_handler+0x3a>
2000088e:	4b3f      	ldr	r3, [pc, #252]	; (2000098c <dcd_event_handler+0x1fc>)
20000890:	781a      	ldrb	r2, [r3, #0]
20000892:	07d4      	lsls	r4, r2, #31
20000894:	d5c6      	bpl.n	20000824 <dcd_event_handler+0x94>
20000896:	781a      	ldrb	r2, [r3, #0]
20000898:	f36f 0282 	bfc	r2, #2, #1
2000089c:	701a      	strb	r2, [r3, #0]
2000089e:	e794      	b.n	200007ca <dcd_event_handler+0x3a>
200008a0:	4c3a      	ldr	r4, [pc, #232]	; (2000098c <dcd_event_handler+0x1fc>)
200008a2:	7823      	ldrb	r3, [r4, #0]
200008a4:	0758      	lsls	r0, r3, #29
200008a6:	d433      	bmi.n	20000910 <dcd_event_handler+0x180>
200008a8:	78e3      	ldrb	r3, [r4, #3]
200008aa:	07da      	lsls	r2, r3, #31
200008ac:	d5ba      	bpl.n	20000824 <dcd_event_handler+0x94>
200008ae:	2700      	movs	r7, #0
200008b0:	2303      	movs	r3, #3
200008b2:	4937      	ldr	r1, [pc, #220]	; (20000990 <dcd_event_handler+0x200>)
200008b4:	782a      	ldrb	r2, [r5, #0]
200008b6:	680c      	ldr	r4, [r1, #0]
200008b8:	6869      	ldr	r1, [r5, #4]
200008ba:	9703      	str	r7, [sp, #12]
200008bc:	e9cd 7101 	strd	r7, r1, [sp, #4]
200008c0:	f88d 2004 	strb.w	r2, [sp, #4]
200008c4:	f88d 3005 	strb.w	r3, [sp, #5]
200008c8:	6963      	ldr	r3, [r4, #20]
200008ca:	f3ef 8210 	mrs	r2, PRIMASK
200008ce:	b672      	cpsid	i
200008d0:	e8d3 0fcf 	ldaexb	r0, [r3]
200008d4:	2101      	movs	r1, #1
200008d6:	2800      	cmp	r0, #0
200008d8:	d1fa      	bne.n	200008d0 <dcd_event_handler+0x140>
200008da:	e8c3 1f40 	strexb	r0, r1, [r3]
200008de:	2800      	cmp	r0, #0
200008e0:	d1f6      	bne.n	200008d0 <dcd_event_handler+0x140>
200008e2:	f3bf 8f5f 	dmb	sy
200008e6:	4620      	mov	r0, r4
200008e8:	a901      	add	r1, sp, #4
200008ea:	61a2      	str	r2, [r4, #24]
200008ec:	f000 f884 	bl	200009f8 <__tu_fifo_write_veneer>
200008f0:	6963      	ldr	r3, [r4, #20]
200008f2:	e8c3 7f8f 	stlb	r7, [r3]
200008f6:	69a3      	ldr	r3, [r4, #24]
200008f8:	f383 8810 	msr	PRIMASK, r3
200008fc:	2800      	cmp	r0, #0
200008fe:	d082      	beq.n	20000806 <dcd_event_handler+0x76>
20000900:	4632      	mov	r2, r6
20000902:	f89d 1005 	ldrb.w	r1, [sp, #5]
20000906:	f89d 0004 	ldrb.w	r0, [sp, #4]
2000090a:	f000 f84d 	bl	200009a8 <__tud_event_hook_cb_veneer>
2000090e:	e789      	b.n	20000824 <dcd_event_handler+0x94>
20000910:	f04f 0800 	mov.w	r8, #0
20000914:	2205      	movs	r2, #5
20000916:	7823      	ldrb	r3, [r4, #0]
20000918:	491d      	ldr	r1, [pc, #116]	; (20000990 <dcd_event_handler+0x200>)
2000091a:	f36f 0382 	bfc	r3, #2, #1
2000091e:	7023      	strb	r3, [r4, #0]
20000920:	782b      	ldrb	r3, [r5, #0]
20000922:	680f      	ldr	r7, [r1, #0]
20000924:	f8cd 8004 	str.w	r8, [sp, #4]
20000928:	f88d 2005 	strb.w	r2, [sp, #5]
2000092c:	f88d 3004 	strb.w	r3, [sp, #4]
20000930:	e9cd 8802 	strd	r8, r8, [sp, #8]
20000934:	697b      	ldr	r3, [r7, #20]
20000936:	f3ef 8210 	mrs	r2, PRIMASK
2000093a:	b672      	cpsid	i
2000093c:	e8d3 0fcf 	ldaexb	r0, [r3]
20000940:	2101      	movs	r1, #1
20000942:	2800      	cmp	r0, #0
20000944:	d1fa      	bne.n	2000093c <dcd_event_handler+0x1ac>
20000946:	e8c3 1f40 	strexb	r0, r1, [r3]
2000094a:	2800      	cmp	r0, #0
2000094c:	d1f6      	bne.n	2000093c <dcd_event_handler+0x1ac>
2000094e:	f3bf 8f5f 	dmb	sy
20000952:	4638      	mov	r0, r7
20000954:	61ba      	str	r2, [r7, #24]
20000956:	a901      	add	r1, sp, #4
20000958:	f000 f84e 	bl	200009f8 <__tu_fifo_write_veneer>
2000095c:	697b      	ldr	r3, [r7, #20]
2000095e:	e8c3 8f8f 	stlb	r8, [r3]
20000962:	69bb      	ldr	r3, [r7, #24]
20000964:	f383 8810 	msr	PRIMASK, r3
20000968:	b938      	cbnz	r0, 2000097a <dcd_event_handler+0x1ea>
2000096a:	f04f 23e0 	mov.w	r3, #3758153728	; 0xe000e000
2000096e:	f8d3 3df0 	ldr.w	r3, [r3, #3568]	; 0xdf0
20000972:	07d9      	lsls	r1, r3, #31
20000974:	d598      	bpl.n	200008a8 <dcd_event_handler+0x118>
20000976:	be00      	bkpt	0x0000
20000978:	e796      	b.n	200008a8 <dcd_event_handler+0x118>
2000097a:	4632      	mov	r2, r6
2000097c:	f89d 1005 	ldrb.w	r1, [sp, #5]
20000980:	f89d 0004 	ldrb.w	r0, [sp, #4]
20000984:	f000 f810 	bl	200009a8 <__tud_event_hook_cb_veneer>
20000988:	e78e      	b.n	200008a8 <dcd_event_handler+0x118>
2000098a:	bf00      	nop
2000098c:	20000fa8 	.word	0x20000fa8
20000990:	20001000 	.word	0x20001000
20000994:	20001853 	.word	0x20001853
20000998:	100047f4 	.word	0x100047f4
2000099c:	20001851 	.word	0x20001851
200009a0:	20000c5c 	.word	0x20000c5c
200009a4:	00000000 	.word	0x00000000

200009a8 <__tud_event_hook_cb_veneer>:
200009a8:	b401      	push	{r0}
200009aa:	4802      	ldr	r0, [pc, #8]	; (200009b4 <__tud_event_hook_cb_veneer+0xc>)
200009ac:	4684      	mov	ip, r0
200009ae:	bc01      	pop	{r0}
200009b0:	4760      	bx	ip
200009b2:	bf00      	nop
200009b4:	10002791 	.word	0x10002791

200009b8 <__panic_veneer>:
200009b8:	b401      	push	{r0}
200009ba:	4802      	ldr	r0, [pc, #8]	; (200009c4 <__panic_veneer+0xc>)
200009bc:	4684      	mov	ip, r0
200009be:	bc01      	pop	{r0}
200009c0:	4760      	bx	ip
200009c2:	bf00      	nop
200009c4:	1000068d 	.word	0x1000068d

200009c8 <__time_us_64_veneer>:
200009c8:	b401      	push	{r0}
200009ca:	4802      	ldr	r0, [pc, #8]	; (200009d4 <__time_us_64_veneer+0xc>)
200009cc:	4684      	mov	ip, r0
200009ce:	bc01      	pop	{r0}
200009d0:	4760      	bx	ip
200009d2:	bf00      	nop
200009d4:	10001499 	.word	0x10001499

200009d8 <__best_effort_wfe_or_timeout_veneer>:
200009d8:	b401      	push	{r0}
200009da:	4802      	ldr	r0, [pc, #8]	; (200009e4 <__best_effort_wfe_or_timeout_veneer+0xc>)
200009dc:	4684      	mov	ip, r0
200009de:	bc01      	pop	{r0}
200009e0:	4760      	bx	ip
200009e2:	bf00      	nop
200009e4:	100013a9 	.word	0x100013a9

200009e8 <__memset_veneer>:
200009e8:	b401      	push	{r0}
200009ea:	4802      	ldr	r0, [pc, #8]	; (200009f4 <__memset_veneer+0xc>)
200009ec:	4684      	mov	ip, r0
200009ee:	bc01      	pop	{r0}
200009f0:	4760      	bx	ip
200009f2:	bf00      	nop
200009f4:	100042a5 	.word	0x100042a5

200009f8 <__tu_fifo_write_veneer>:
200009f8:	b401      	push	{r0}
200009fa:	4802      	ldr	r0, [pc, #8]	; (20000a04 <__tu_fifo_write_veneer+0xc>)
200009fc:	4684      	mov	ip, r0
200009fe:	bc01      	pop	{r0}
20000a00:	4760      	bx	ip
20000a02:	bf00      	nop
20000a04:	10003f75 	.word	0x10003f75

20000a08 <fast>:
20000a08:	                                         .

20000a09 <striped_spin_lock_num>:
20000a09:	                                         ...

20000a0c <irq_handler_chain_slots>:
20000a0c:	00000000 	.word	0x00000000
20000a10:	00010000 	.word	0x00010000
	...
20000a1c:	00020000 	.word	0x00020000
	...
20000a28:	00030000 	.word	0x00030000
	...
20000a34:	00ff0000 	.word	0x00ff0000
20000a38:	00000000 	.word	0x00000000

20000a3c <irq_handler_chain_first_slot>:
20000a3c:	b501      	push	{r0, lr}
20000a3e:	6848      	ldr	r0, [r1, #4]
20000a40:	3101      	adds	r1, #1
20000a42:	468e      	mov	lr, r1
20000a44:	4700      	bx	r0

20000a46 <irq_handler_chain_remove_tail>:
20000a46:	4670      	mov	r0, lr
20000a48:	3809      	subs	r0, #9
20000a4a:	4901      	ldr	r1, [pc, #4]	; (20000a50 <irq_handler_chain_remove_tail+0xa>)
20000a4c:	4788      	blx	r1
20000a4e:	bd01      	pop	{r0, pc}
20000a50:	10000bed 	.word	0x10000bed

20000a54 <default_alarm_pool>:
	...
20000a68:	20000ab8                                ... 

20000a6c <stdio_usb>:
20000a6c:	10001ff1 10001fa5 10001f21 10001f01     ........!.......
20000a7c:	00000000 00000100                       ........

20000a84 <_usbd_qdef>:
20000a84:	20001004 000c0010 00000000 00000000     ... ............
	...

20000aa0 <_usbd_rhport>:
20000aa0:	000000ff                                ....

20000aa4 <malloc_mutex>:
	...

20000aac <print_mutex>:
	...
